
build/kernel-x86_64.bin:     file format elf64-x86-64


Disassembly of section .text:

0000000000100020 <kernel_start>:
  100020:	e8 3b 01 00 00       	call   100160 <rust_main>
  100025:	f4                   	hlt
  100026:	66 2e 0f 1f 84 00 00 	cs nopw 0x0(%rax,%rax,1)
  10002d:	00 00 00 

0000000000100030 <error>:
  100030:	c7 05 00 80 0b 00 45 	movl   $0x4f524f45,0xb8000(%rip)        # 1b803a <_ZN3log20MAX_LOG_LEVEL_FILTER17h7040ad088582b339E+0x8fff2>
  100037:	4f 52 4f 
  10003a:	c7 05 04 80 0b 00 52 	movl   $0x4f3a4f52,0xb8004(%rip)        # 1b8048 <_ZN3log20MAX_LOG_LEVEL_FILTER17h7040ad088582b339E+0x90000>
  100041:	4f 3a 4f 
  100044:	c7 05 08 80 0b 00 20 	movl   $0x4f204f20,0xb8008(%rip)        # 1b8056 <_ZN3log20MAX_LOG_LEVEL_FILTER17h7040ad088582b339E+0x9000e>
  10004b:	4f 20 4f 
  10004e:	a2                   	.byte 0xa2
  10004f:	0a                   	.byte 0xa
  100050:	80 0b 00             	orb    $0x0,(%rbx)
  100053:	f4                   	hlt

0000000000100054 <multiboot_check>:
  100054:	3d 89 62 d7 36       	cmp    $0x36d76289,%eax
  100059:	75 01                	jne    10005c <no_multiboot>
  10005b:	c3                   	ret

000000000010005c <no_multiboot>:
  10005c:	b0 30                	mov    $0x30,%al
  10005e:	eb d0                	jmp    100030 <error>
  100060:	c3                   	ret

0000000000100061 <cpuid_check>:
  100061:	9c                   	pushf
  100062:	58                   	pop    %rax
  100063:	89 c1                	mov    %eax,%ecx
  100065:	35 00 00 20 00       	xor    $0x200000,%eax
  10006a:	50                   	push   %rax
  10006b:	9d                   	popf
  10006c:	9c                   	pushf
  10006d:	58                   	pop    %rax
  10006e:	51                   	push   %rcx
  10006f:	9d                   	popf
  100070:	31 c8                	xor    %ecx,%eax
  100072:	74 01                	je     100075 <no_cpuid>
  100074:	c3                   	ret

0000000000100075 <no_cpuid>:
  100075:	b0 31                	mov    $0x31,%al
  100077:	eb b7                	jmp    100030 <error>

0000000000100079 <longmode_check>:
  100079:	b8 00 00 00 80       	mov    $0x80000000,%eax
  10007e:	0f a2                	cpuid
  100080:	3d 01 00 00 80       	cmp    $0x80000001,%eax
  100085:	72 10                	jb     100097 <no_long_mode>
  100087:	b8 01 00 00 80       	mov    $0x80000001,%eax
  10008c:	0f a2                	cpuid
  10008e:	f7 c2 00 00 00 20    	test   $0x20000000,%edx
  100094:	74 01                	je     100097 <no_long_mode>
  100096:	c3                   	ret

0000000000100097 <no_long_mode>:
  100097:	b0 32                	mov    $0x32,%al
  100099:	eb 95                	jmp    100030 <error>

000000000010009b <set_up_page_tables>:
  10009b:	b8 00 50 12 00       	mov    $0x125000,%eax
  1000a0:	83 c8 03             	or     $0x3,%eax
  1000a3:	a3 f8 5f 12 00 b8 00 	movabs %eax,0x126000b800125ff8
  1000aa:	60 12 
  1000ac:	00 83 c8 03 a3 00    	add    %al,0xa303c8(%rbx)
  1000b2:	50                   	push   %rax
  1000b3:	12 00                	adc    (%rax),%al
  1000b5:	b8 00 70 12 00       	mov    $0x127000,%eax
  1000ba:	83 c8 03             	or     $0x3,%eax
  1000bd:	a3 00 60 12 00 b9 00 	movabs %eax,0xb900126000
  1000c4:	00 00 
	...

00000000001000c7 <map_p2_table>:
  1000c7:	b8 00 00 20 00       	mov    $0x200000,%eax
  1000cc:	f7 e1                	mul    %ecx
  1000ce:	0d 83 00 00 00       	or     $0x83,%eax
  1000d3:	89 04 cd 00 70 12 00 	mov    %eax,0x127000(,%rcx,8)
  1000da:	41 81 f9 00 02 00 00 	cmp    $0x200,%r9d
  1000e1:	75 e4                	jne    1000c7 <map_p2_table>
  1000e3:	c3                   	ret

00000000001000e4 <enable_paging>:
  1000e4:	b8 00 50 12 00       	mov    $0x125000,%eax
  1000e9:	0f 22 d8             	mov    %rax,%cr3
  1000ec:	0f 20 e0             	mov    %cr4,%rax
  1000ef:	83 c8 20             	or     $0x20,%eax
  1000f2:	0f 22 e0             	mov    %rax,%cr4
  1000f5:	b9 80 00 00 c0       	mov    $0xc0000080,%ecx
  1000fa:	0f 32                	rdmsr
  1000fc:	0d 00 01 00 00       	or     $0x100,%eax
  100101:	0f 30                	wrmsr
  100103:	0f 20 c0             	mov    %cr0,%rax
  100106:	0d 00 00 00 80       	or     $0x80000000,%eax
  10010b:	0f 22 c0             	mov    %rax,%cr0
  10010e:	c3                   	ret

000000000010010f <start>:
  10010f:	bc 40 80 12 00       	mov    $0x128040,%esp
  100114:	89 df                	mov    %ebx,%edi
  100116:	e8 39 ff ff ff       	call   100054 <multiboot_check>
  10011b:	e8 41 ff ff ff       	call   100061 <cpuid_check>
  100120:	e8 54 ff ff ff       	call   100079 <longmode_check>
  100125:	e8 71 ff ff ff       	call   10009b <set_up_page_tables>
  10012a:	e8 b5 ff ff ff       	call   1000e4 <enable_paging>
  10012f:	0f 01 15 50 df 11 00 	lgdt   0x11df50(%rip)        # 21e086 <_ZN3log20MAX_LOG_LEVEL_FILTER17h7040ad088582b339E+0xf603e>
  100136:	ea                   	(bad)
  100137:	40 01 10             	rex add %edx,(%rax)
  10013a:	00 08                	add    %cl,(%rax)
  10013c:	00 0f                	add    %cl,(%rdi)
  10013e:	1f                   	(bad)
	...

0000000000100140 <long_mode_start>:
  100140:	66 b8 00 00          	mov    $0x0,%ax
  100144:	8e d0                	mov    %eax,%ss
  100146:	8e d8                	mov    %eax,%ds
  100148:	8e c0                	mov    %eax,%es
  10014a:	8e e0                	mov    %eax,%fs
  10014c:	8e e8                	mov    %eax,%gs
  10014e:	e9 cd fe ff ff       	jmp    100020 <kernel_start>
  100153:	66 2e 0f 1f 84 00 00 	cs nopw 0x0(%rax,%rax,1)
  10015a:	00 00 00 
  10015d:	0f 1f 00             	nopl   (%rax)

0000000000100160 <rust_main>:
  100160:	48 81 ec 98 04 00 00 	sub    $0x498,%rsp
  100167:	48 89 7c 24 58       	mov    %rdi,0x58(%rsp)
  10016c:	48 8b 74 24 58       	mov    0x58(%rsp),%rsi
  100171:	48 8d 7c 24 60       	lea    0x60(%rsp),%rdi
  100176:	e8 a5 63 00 00       	call   106520 <_ZN10multiboot215BootInformation4load17hb73d604c836f6da6E>
  10017b:	48 8b 54 24 60       	mov    0x60(%rsp),%rdx
  100180:	31 c0                	xor    %eax,%eax
  100182:	b9 01 00 00 00       	mov    $0x1,%ecx
  100187:	48 83 fa 00          	cmp    $0x0,%rdx
  10018b:	48 0f 44 c1          	cmove  %rcx,%rax
  10018f:	48 83 f8 00          	cmp    $0x0,%rax
  100193:	0f 85 1d 02 00 00    	jne    1003b6 <rust_main+0x256>
  100199:	48 8b 4c 24 60       	mov    0x60(%rsp),%rcx
  10019e:	48 89 4c 24 28       	mov    %rcx,0x28(%rsp)
  1001a3:	48 8b 44 24 68       	mov    0x68(%rsp),%rax
  1001a8:	48 89 44 24 30       	mov    %rax,0x30(%rsp)
  1001ad:	48 89 8c 24 50 03 00 	mov    %rcx,0x350(%rsp)
  1001b4:	00 
  1001b5:	48 89 84 24 58 03 00 	mov    %rax,0x358(%rsp)
  1001bc:	00 
  1001bd:	48 8d bc 24 88 00 00 	lea    0x88(%rsp),%rdi
  1001c4:	00 
  1001c5:	48 8d 35 04 22 02 00 	lea    0x22204(%rip),%rsi        # 1223d0 <str.0+0x20>
  1001cc:	ba 01 00 00 00       	mov    $0x1,%edx
  1001d1:	e8 8a b8 01 00       	call   11ba60 <_ZN4core3fmt9Arguments9new_const17h6199737f6aa61dd0E>
  1001d6:	48 8d bc 24 87 00 00 	lea    0x87(%rsp),%rdi
  1001dd:	00 
  1001de:	48 8d b4 24 88 00 00 	lea    0x88(%rsp),%rsi
  1001e5:	00 
  1001e6:	e8 65 46 00 00       	call   104850 <_ZN4core3fmt5Write9write_fmt17hccb14a4ded65d011E>
  1001eb:	0f b6 f8             	movzbl %al,%edi
  1001ee:	83 e7 01             	and    $0x1,%edi
  1001f1:	48 8d 35 e8 21 02 00 	lea    0x221e8(%rip),%rsi        # 1223e0 <str.0+0x30>
  1001f8:	e8 33 57 01 00       	call   115930 <_ZN4core6result19Result$LT$T$C$E$GT$6unwrap17h501db31922113f90E>
  1001fd:	48 8b 4c 24 28       	mov    0x28(%rsp),%rcx
  100202:	48 8b 44 24 30       	mov    0x30(%rsp),%rax
  100207:	48 89 4c 24 70       	mov    %rcx,0x70(%rsp)
  10020c:	48 89 44 24 78       	mov    %rax,0x78(%rsp)
  100211:	48 8d 7c 24 70       	lea    0x70(%rsp),%rdi
  100216:	e8 d5 65 00 00       	call   1067f0 <_ZN10multiboot215BootInformation14memory_map_tag17h8ce5177cb69eabdbE>
  10021b:	48 89 c7             	mov    %rax,%rdi
  10021e:	48 89 d6             	mov    %rdx,%rsi
  100221:	48 8d 15 d0 21 02 00 	lea    0x221d0(%rip),%rdx        # 1223f8 <str.0+0x48>
  100228:	e8 e3 10 00 00       	call   101310 <_ZN4core6option15Option$LT$T$GT$6unwrap17hf3e15e7367594e6eE>
  10022d:	48 89 44 24 38       	mov    %rax,0x38(%rsp)
  100232:	48 89 54 24 40       	mov    %rdx,0x40(%rsp)
  100237:	48 89 84 24 60 03 00 	mov    %rax,0x360(%rsp)
  10023e:	00 
  10023f:	48 89 94 24 68 03 00 	mov    %rdx,0x368(%rsp)
  100246:	00 
  100247:	48 8d bc 24 20 01 00 	lea    0x120(%rsp),%rdi
  10024e:	00 
  10024f:	48 8d 35 ba 21 02 00 	lea    0x221ba(%rip),%rsi        # 122410 <str.0+0x60>
  100256:	ba 01 00 00 00       	mov    $0x1,%edx
  10025b:	e8 00 b8 01 00       	call   11ba60 <_ZN4core3fmt9Arguments9new_const17h6199737f6aa61dd0E>
  100260:	48 8d bc 24 1f 01 00 	lea    0x11f(%rsp),%rdi
  100267:	00 
  100268:	48 8d b4 24 20 01 00 	lea    0x120(%rsp),%rsi
  10026f:	00 
  100270:	e8 db 45 00 00       	call   104850 <_ZN4core3fmt5Write9write_fmt17hccb14a4ded65d011E>
  100275:	0f b6 f8             	movzbl %al,%edi
  100278:	83 e7 01             	and    $0x1,%edi
  10027b:	48 8d 35 9e 21 02 00 	lea    0x2219e(%rip),%rsi        # 122420 <str.0+0x70>
  100282:	e8 a9 56 01 00       	call   115930 <_ZN4core6result19Result$LT$T$C$E$GT$6unwrap17h501db31922113f90E>
  100287:	48 8d bc 24 68 01 00 	lea    0x168(%rsp),%rdi
  10028e:	00 
  10028f:	48 8d 74 24 70       	lea    0x70(%rsp),%rsi
  100294:	e8 67 64 00 00       	call   106700 <_ZN10multiboot215BootInformation12elf_sections17h14a7aa3604a2b4d5E>
  100299:	48 8d bc 24 50 01 00 	lea    0x150(%rsp),%rdi
  1002a0:	00 
  1002a1:	48 8d b4 24 68 01 00 	lea    0x168(%rsp),%rsi
  1002a8:	00 
  1002a9:	48 8d 15 88 21 02 00 	lea    0x22188(%rip),%rdx        # 122438 <str.0+0x88>
  1002b0:	e8 3b 0e 00 00       	call   1010f0 <_ZN4core6option15Option$LT$T$GT$6unwrap17h2a1cc5b70e9c206bE>
  1002b5:	48 8d bc 24 a8 01 00 	lea    0x1a8(%rsp),%rdi
  1002bc:	00 
  1002bd:	48 8d b4 24 50 01 00 	lea    0x150(%rsp),%rsi
  1002c4:	00 
  1002c5:	e8 16 47 00 00       	call   1049e0 <_ZN79_$LT$multiboot2..elf_sections..ElfSectionIter$u20$as$u20$core..clone..Clone$GT$5clone17hf0ce36e040368740E>
  1002ca:	48 8d bc 24 90 01 00 	lea    0x190(%rsp),%rdi
  1002d1:	00 
  1002d2:	48 8d b4 24 a8 01 00 	lea    0x1a8(%rsp),%rsi
  1002d9:	00 
  1002da:	e8 b1 24 00 00       	call   102790 <_ZN4core4iter6traits8iterator8Iterator3map17h4e7883660c1b4607E>
  1002df:	48 8d bc 24 90 01 00 	lea    0x190(%rsp),%rdi
  1002e6:	00 
  1002e7:	e8 74 17 00 00       	call   101a60 <_ZN4core4iter6traits8iterator8Iterator3min17h0f258716ebd5c384E>
  1002ec:	48 89 c7             	mov    %rax,%rdi
  1002ef:	48 89 d6             	mov    %rdx,%rsi
  1002f2:	48 8d 15 57 21 02 00 	lea    0x22157(%rip),%rdx        # 122450 <str.0+0xa0>
  1002f9:	e8 02 4f 00 00       	call   105200 <_ZN4core6option15Option$LT$T$GT$6unwrap17h488f33e713ac9499E>
  1002fe:	48 89 84 24 88 01 00 	mov    %rax,0x188(%rsp)
  100305:	00 
  100306:	48 8b 84 24 50 01 00 	mov    0x150(%rsp),%rax
  10030d:	00 
  10030e:	48 89 84 24 e0 01 00 	mov    %rax,0x1e0(%rsp)
  100315:	00 
  100316:	48 8b 84 24 58 01 00 	mov    0x158(%rsp),%rax
  10031d:	00 
  10031e:	48 89 84 24 e8 01 00 	mov    %rax,0x1e8(%rsp)
  100325:	00 
  100326:	48 8b 84 24 60 01 00 	mov    0x160(%rsp),%rax
  10032d:	00 
  10032e:	48 89 84 24 f0 01 00 	mov    %rax,0x1f0(%rsp)
  100335:	00 
  100336:	48 8d bc 24 c8 01 00 	lea    0x1c8(%rsp),%rdi
  10033d:	00 
  10033e:	48 8d b4 24 e0 01 00 	lea    0x1e0(%rsp),%rsi
  100345:	00 
  100346:	e8 25 24 00 00       	call   102770 <_ZN4core4iter6traits8iterator8Iterator3map17h477a5dd8ed5dc610E>
  10034b:	48 8d bc 24 c8 01 00 	lea    0x1c8(%rsp),%rdi
  100352:	00 
  100353:	e8 f8 16 00 00       	call   101a50 <_ZN4core4iter6traits8iterator8Iterator3max17hf42348a6603c1277E>
  100358:	48 89 c7             	mov    %rax,%rdi
  10035b:	48 89 d6             	mov    %rdx,%rsi
  10035e:	48 8d 15 03 21 02 00 	lea    0x22103(%rip),%rdx        # 122468 <str.0+0xb8>
  100365:	e8 96 4e 00 00       	call   105200 <_ZN4core6option15Option$LT$T$GT$6unwrap17h488f33e713ac9499E>
  10036a:	48 89 84 24 c0 01 00 	mov    %rax,0x1c0(%rsp)
  100371:	00 
  100372:	48 8b 44 24 58       	mov    0x58(%rsp),%rax
  100377:	48 89 84 24 f8 01 00 	mov    %rax,0x1f8(%rsp)
  10037e:	00 
  10037f:	48 8b 84 24 f8 01 00 	mov    0x1f8(%rsp),%rax
  100386:	00 
  100387:	48 89 44 24 48       	mov    %rax,0x48(%rsp)
  10038c:	48 8d 7c 24 70       	lea    0x70(%rsp),%rdi
  100391:	e8 5a 63 00 00       	call   1066f0 <_ZN10multiboot215BootInformation10total_size17hc4fb3965a3435a49E>
  100396:	48 89 c1             	mov    %rax,%rcx
  100399:	48 8b 44 24 48       	mov    0x48(%rsp),%rax
  10039e:	48 01 c8             	add    %rcx,%rax
  1003a1:	48 89 44 24 50       	mov    %rax,0x50(%rsp)
  1003a6:	0f 92 c0             	setb   %al
  1003a9:	a8 01                	test   $0x1,%al
  1003ab:	0f 85 54 03 00 00    	jne    100705 <rust_main+0x5a5>
  1003b1:	e9 17 01 00 00       	jmp    1004cd <rust_main+0x36d>
  1003b6:	8b 4c 24 68          	mov    0x68(%rsp),%ecx
  1003ba:	8b 44 24 6c          	mov    0x6c(%rsp),%eax
  1003be:	89 8c 24 bc 00 00 00 	mov    %ecx,0xbc(%rsp)
  1003c5:	89 84 24 c0 00 00 00 	mov    %eax,0xc0(%rsp)
  1003cc:	48 8d 4c 24 58       	lea    0x58(%rsp),%rcx
  1003d1:	48 89 8c 24 98 03 00 	mov    %rcx,0x398(%rsp)
  1003d8:	00 
  1003d9:	48 89 8c 24 00 04 00 	mov    %rcx,0x400(%rsp)
  1003e0:	00 
  1003e1:	48 8d 05 88 af 00 00 	lea    0xaf88(%rip),%rax        # 10b370 <_ZN4core3fmt3num55_$LT$impl$u20$core..fmt..LowerHex$u20$for$u20$usize$GT$3fmt17h0a7b4c6b6751a21eE>
  1003e8:	48 89 84 24 08 04 00 	mov    %rax,0x408(%rsp)
  1003ef:	00 
  1003f0:	48 89 8c 24 f0 03 00 	mov    %rcx,0x3f0(%rsp)
  1003f7:	00 
  1003f8:	48 89 84 24 f8 03 00 	mov    %rax,0x3f8(%rsp)
  1003ff:	00 
  100400:	48 8b b4 24 f0 03 00 	mov    0x3f0(%rsp),%rsi
  100407:	00 
  100408:	48 8b 94 24 f8 03 00 	mov    0x3f8(%rsp),%rdx
  10040f:	00 
  100410:	48 8d 8c 24 bc 00 00 	lea    0xbc(%rsp),%rcx
  100417:	00 
  100418:	48 89 8c 24 70 04 00 	mov    %rcx,0x470(%rsp)
  10041f:	00 
  100420:	48 89 8c 24 88 04 00 	mov    %rcx,0x488(%rsp)
  100427:	00 
  100428:	48 8d 05 71 c8 01 00 	lea    0x1c871(%rip),%rax        # 11cca0 <_ZN61_$LT$multiboot2..MbiLoadError$u20$as$u20$core..fmt..Debug$GT$3fmt17hd018a913ea91fa09E>
  10042f:	48 89 84 24 90 04 00 	mov    %rax,0x490(%rsp)
  100436:	00 
  100437:	48 89 8c 24 78 04 00 	mov    %rcx,0x478(%rsp)
  10043e:	00 
  10043f:	48 89 84 24 80 04 00 	mov    %rax,0x480(%rsp)
  100446:	00 
  100447:	48 8b 8c 24 78 04 00 	mov    0x478(%rsp),%rcx
  10044e:	00 
  10044f:	48 8b 84 24 80 04 00 	mov    0x480(%rsp),%rax
  100456:	00 
  100457:	48 89 b4 24 f8 00 00 	mov    %rsi,0xf8(%rsp)
  10045e:	00 
  10045f:	48 89 94 24 00 01 00 	mov    %rdx,0x100(%rsp)
  100466:	00 
  100467:	48 89 8c 24 08 01 00 	mov    %rcx,0x108(%rsp)
  10046e:	00 
  10046f:	48 89 84 24 10 01 00 	mov    %rax,0x110(%rsp)
  100476:	00 
  100477:	48 8d bc 24 c8 00 00 	lea    0xc8(%rsp),%rdi
  10047e:	00 
  10047f:	48 8d 35 4a 21 02 00 	lea    0x2214a(%rip),%rsi        # 1225d0 <str.0+0x220>
  100486:	ba 03 00 00 00       	mov    $0x3,%edx
  10048b:	48 8d 8c 24 f8 00 00 	lea    0xf8(%rsp),%rcx
  100492:	00 
  100493:	41 b8 02 00 00 00    	mov    $0x2,%r8d
  100499:	e8 b2 b4 01 00       	call   11b950 <_ZN4core3fmt9Arguments6new_v117he9961337dc0bce50E>
  10049e:	48 8d bc 24 c7 00 00 	lea    0xc7(%rsp),%rdi
  1004a5:	00 
  1004a6:	48 8d b4 24 c8 00 00 	lea    0xc8(%rsp),%rsi
  1004ad:	00 
  1004ae:	e8 9d 43 00 00       	call   104850 <_ZN4core3fmt5Write9write_fmt17hccb14a4ded65d011E>
  1004b3:	0f b6 f8             	movzbl %al,%edi
  1004b6:	83 e7 01             	and    $0x1,%edi
  1004b9:	48 8d 35 40 21 02 00 	lea    0x22140(%rip),%rsi        # 122600 <str.0+0x250>
  1004c0:	e8 6b 54 01 00       	call   115930 <_ZN4core6result19Result$LT$T$C$E$GT$6unwrap17h501db31922113f90E>
  1004c5:	48 81 c4 98 04 00 00 	add    $0x498,%rsp
  1004cc:	c3                   	ret
  1004cd:	48 8b 44 24 50       	mov    0x50(%rsp),%rax
  1004d2:	48 89 84 24 00 02 00 	mov    %rax,0x200(%rsp)
  1004d9:	00 
  1004da:	48 8d 8c 24 88 01 00 	lea    0x188(%rsp),%rcx
  1004e1:	00 
  1004e2:	48 89 8c 24 90 03 00 	mov    %rcx,0x390(%rsp)
  1004e9:	00 
  1004ea:	48 89 8c 24 20 04 00 	mov    %rcx,0x420(%rsp)
  1004f1:	00 
  1004f2:	48 8d 05 97 af 00 00 	lea    0xaf97(%rip),%rax        # 10b490 <_ZN4core3fmt3num53_$LT$impl$u20$core..fmt..LowerHex$u20$for$u20$u64$GT$3fmt17h1fdedc591f0da6e5E>
  1004f9:	48 89 84 24 28 04 00 	mov    %rax,0x428(%rsp)
  100500:	00 
  100501:	48 89 8c 24 10 04 00 	mov    %rcx,0x410(%rsp)
  100508:	00 
  100509:	48 89 84 24 18 04 00 	mov    %rax,0x418(%rsp)
  100510:	00 
  100511:	48 8b b4 24 10 04 00 	mov    0x410(%rsp),%rsi
  100518:	00 
  100519:	48 8b 94 24 18 04 00 	mov    0x418(%rsp),%rdx
  100520:	00 
  100521:	48 8d 8c 24 c0 01 00 	lea    0x1c0(%rsp),%rcx
  100528:	00 
  100529:	48 89 8c 24 88 03 00 	mov    %rcx,0x388(%rsp)
  100530:	00 
  100531:	48 89 8c 24 40 04 00 	mov    %rcx,0x440(%rsp)
  100538:	00 
  100539:	48 89 84 24 48 04 00 	mov    %rax,0x448(%rsp)
  100540:	00 
  100541:	48 89 8c 24 30 04 00 	mov    %rcx,0x430(%rsp)
  100548:	00 
  100549:	48 89 84 24 38 04 00 	mov    %rax,0x438(%rsp)
  100550:	00 
  100551:	48 8b 8c 24 30 04 00 	mov    0x430(%rsp),%rcx
  100558:	00 
  100559:	48 8b 84 24 38 04 00 	mov    0x438(%rsp),%rax
  100560:	00 
  100561:	48 89 b4 24 40 02 00 	mov    %rsi,0x240(%rsp)
  100568:	00 
  100569:	48 89 94 24 48 02 00 	mov    %rdx,0x248(%rsp)
  100570:	00 
  100571:	48 89 8c 24 50 02 00 	mov    %rcx,0x250(%rsp)
  100578:	00 
  100579:	48 89 84 24 58 02 00 	mov    %rax,0x258(%rsp)
  100580:	00 
  100581:	48 8d 35 10 1f 02 00 	lea    0x21f10(%rip),%rsi        # 122498 <str.0+0xe8>
  100588:	48 8d bc 24 10 02 00 	lea    0x210(%rsp),%rdi
  10058f:	00 
  100590:	48 89 7c 24 08       	mov    %rdi,0x8(%rsp)
  100595:	ba 03 00 00 00       	mov    $0x3,%edx
  10059a:	48 8d 8c 24 40 02 00 	lea    0x240(%rsp),%rcx
  1005a1:	00 
  1005a2:	41 b8 02 00 00 00    	mov    $0x2,%r8d
  1005a8:	e8 a3 b3 01 00       	call   11b950 <_ZN4core3fmt9Arguments6new_v117he9961337dc0bce50E>
  1005ad:	48 8b 74 24 08       	mov    0x8(%rsp),%rsi
  1005b2:	48 8d bc 24 0f 02 00 	lea    0x20f(%rsp),%rdi
  1005b9:	00 
  1005ba:	e8 91 42 00 00       	call   104850 <_ZN4core3fmt5Write9write_fmt17hccb14a4ded65d011E>
  1005bf:	0f b6 f8             	movzbl %al,%edi
  1005c2:	48 8d 35 ff 1e 02 00 	lea    0x21eff(%rip),%rsi        # 1224c8 <str.0+0x118>
  1005c9:	e8 62 53 01 00       	call   115930 <_ZN4core6result19Result$LT$T$C$E$GT$6unwrap17h501db31922113f90E>
  1005ce:	48 8d 8c 24 f8 01 00 	lea    0x1f8(%rsp),%rcx
  1005d5:	00 
  1005d6:	48 89 8c 24 a8 03 00 	mov    %rcx,0x3a8(%rsp)
  1005dd:	00 
  1005de:	48 89 8c 24 c0 03 00 	mov    %rcx,0x3c0(%rsp)
  1005e5:	00 
  1005e6:	48 8d 05 83 ad 00 00 	lea    0xad83(%rip),%rax        # 10b370 <_ZN4core3fmt3num55_$LT$impl$u20$core..fmt..LowerHex$u20$for$u20$usize$GT$3fmt17h0a7b4c6b6751a21eE>
  1005ed:	48 89 84 24 c8 03 00 	mov    %rax,0x3c8(%rsp)
  1005f4:	00 
  1005f5:	48 89 8c 24 b0 03 00 	mov    %rcx,0x3b0(%rsp)
  1005fc:	00 
  1005fd:	48 89 84 24 b8 03 00 	mov    %rax,0x3b8(%rsp)
  100604:	00 
  100605:	48 8b b4 24 b0 03 00 	mov    0x3b0(%rsp),%rsi
  10060c:	00 
  10060d:	48 8b 94 24 b8 03 00 	mov    0x3b8(%rsp),%rdx
  100614:	00 
  100615:	48 8d 8c 24 00 02 00 	lea    0x200(%rsp),%rcx
  10061c:	00 
  10061d:	48 89 8c 24 a0 03 00 	mov    %rcx,0x3a0(%rsp)
  100624:	00 
  100625:	48 89 8c 24 e0 03 00 	mov    %rcx,0x3e0(%rsp)
  10062c:	00 
  10062d:	48 89 84 24 e8 03 00 	mov    %rax,0x3e8(%rsp)
  100634:	00 
  100635:	48 89 8c 24 d0 03 00 	mov    %rcx,0x3d0(%rsp)
  10063c:	00 
  10063d:	48 89 84 24 d8 03 00 	mov    %rax,0x3d8(%rsp)
  100644:	00 
  100645:	48 8b 8c 24 d0 03 00 	mov    0x3d0(%rsp),%rcx
  10064c:	00 
  10064d:	48 8b 84 24 d8 03 00 	mov    0x3d8(%rsp),%rax
  100654:	00 
  100655:	48 89 b4 24 98 02 00 	mov    %rsi,0x298(%rsp)
  10065c:	00 
  10065d:	48 89 94 24 a0 02 00 	mov    %rdx,0x2a0(%rsp)
  100664:	00 
  100665:	48 89 8c 24 a8 02 00 	mov    %rcx,0x2a8(%rsp)
  10066c:	00 
  10066d:	48 89 84 24 b0 02 00 	mov    %rax,0x2b0(%rsp)
  100674:	00 
  100675:	48 8d bc 24 68 02 00 	lea    0x268(%rsp),%rdi
  10067c:	00 
  10067d:	48 8d 35 5c 1e 02 00 	lea    0x21e5c(%rip),%rsi        # 1224e0 <str.0+0x130>
  100684:	ba 03 00 00 00       	mov    $0x3,%edx
  100689:	48 8d 8c 24 98 02 00 	lea    0x298(%rsp),%rcx
  100690:	00 
  100691:	41 b8 02 00 00 00    	mov    $0x2,%r8d
  100697:	e8 b4 b2 01 00       	call   11b950 <_ZN4core3fmt9Arguments6new_v117he9961337dc0bce50E>
  10069c:	48 8d bc 24 67 02 00 	lea    0x267(%rsp),%rdi
  1006a3:	00 
  1006a4:	48 8d b4 24 68 02 00 	lea    0x268(%rsp),%rsi
  1006ab:	00 
  1006ac:	e8 9f 41 00 00       	call   104850 <_ZN4core3fmt5Write9write_fmt17hccb14a4ded65d011E>
  1006b1:	0f b6 f8             	movzbl %al,%edi
  1006b4:	83 e7 01             	and    $0x1,%edi
  1006b7:	48 8d 35 52 1e 02 00 	lea    0x21e52(%rip),%rsi        # 122510 <str.0+0x160>
  1006be:	e8 6d 52 01 00       	call   115930 <_ZN4core6result19Result$LT$T$C$E$GT$6unwrap17h501db31922113f90E>
  1006c3:	48 8b 7c 24 38       	mov    0x38(%rsp),%rdi
  1006c8:	48 8b 74 24 40       	mov    0x40(%rsp),%rsi
  1006cd:	e8 4e 67 00 00       	call   106e20 <_ZN10multiboot210memory_map12MemoryMapTag12memory_areas17h2a075bfcbb443834E>
  1006d2:	48 89 44 24 10       	mov    %rax,0x10(%rsp)
  1006d7:	48 89 54 24 18       	mov    %rdx,0x18(%rsp)
  1006dc:	48 89 84 24 70 03 00 	mov    %rax,0x370(%rsp)
  1006e3:	00 
  1006e4:	48 89 94 24 78 03 00 	mov    %rdx,0x378(%rsp)
  1006eb:	00 
  1006ec:	48 89 d0             	mov    %rdx,%rax
  1006ef:	48 83 e8 02          	sub    $0x2,%rax
  1006f3:	48 89 44 24 20       	mov    %rax,0x20(%rsp)
  1006f8:	48 83 fa 02          	cmp    $0x2,%rdx
  1006fc:	0f 92 c0             	setb   %al
  1006ff:	a8 01                	test   $0x1,%al
  100701:	75 35                	jne    100738 <rust_main+0x5d8>
  100703:	eb 1a                	jmp    10071f <rust_main+0x5bf>
  100705:	48 8d 3d b4 d8 01 00 	lea    0x1d8b4(%rip),%rdi        # 11dfc0 <str.0>
  10070c:	48 8d 15 6d 1d 02 00 	lea    0x21d6d(%rip),%rdx        # 122480 <str.0+0xd0>
  100713:	be 1c 00 00 00       	mov    $0x1c,%esi
  100718:	e8 33 65 01 00       	call   116c50 <_ZN4core9panicking5panic17h13a0ad3e62cace8fE>
  10071d:	0f 0b                	ud2
  10071f:	48 8b 44 24 20       	mov    0x20(%rsp),%rax
  100724:	48 8b 4c 24 18       	mov    0x18(%rsp),%rcx
  100729:	48 39 c8             	cmp    %rcx,%rax
  10072c:	0f 92 c0             	setb   %al
  10072f:	a8 01                	test   $0x1,%al
  100731:	75 1f                	jne    100752 <rust_main+0x5f2>
  100733:	e9 73 01 00 00       	jmp    1008ab <rust_main+0x74b>
  100738:	48 8d 3d 31 d9 01 00 	lea    0x1d931(%rip),%rdi        # 11e070 <str.1>
  10073f:	48 8d 15 e2 1d 02 00 	lea    0x21de2(%rip),%rdx        # 122528 <str.0+0x178>
  100746:	be 21 00 00 00       	mov    $0x21,%esi
  10074b:	e8 00 65 01 00       	call   116c50 <_ZN4core9panicking5panic17h13a0ad3e62cace8fE>
  100750:	0f 0b                	ud2
  100752:	48 8b 44 24 10       	mov    0x10(%rsp),%rax
  100757:	48 8b 4c 24 20       	mov    0x20(%rsp),%rcx
  10075c:	48 8d 0c 49          	lea    (%rcx,%rcx,2),%rcx
  100760:	48 8d 3c c8          	lea    (%rax,%rcx,8),%rdi
  100764:	e8 d7 68 00 00       	call   107040 <_ZN10multiboot210memory_map10MemoryArea11end_address17h59b0caf036b4b45dE>
  100769:	48 89 84 24 b8 02 00 	mov    %rax,0x2b8(%rsp)
  100770:	00 
  100771:	48 8d 8c 24 b8 02 00 	lea    0x2b8(%rsp),%rcx
  100778:	00 
  100779:	48 89 8c 24 80 03 00 	mov    %rcx,0x380(%rsp)
  100780:	00 
  100781:	48 89 8c 24 60 04 00 	mov    %rcx,0x460(%rsp)
  100788:	00 
  100789:	48 8d 05 00 ad 00 00 	lea    0xad00(%rip),%rax        # 10b490 <_ZN4core3fmt3num53_$LT$impl$u20$core..fmt..LowerHex$u20$for$u20$u64$GT$3fmt17h1fdedc591f0da6e5E>
  100790:	48 89 84 24 68 04 00 	mov    %rax,0x468(%rsp)
  100797:	00 
  100798:	48 89 8c 24 50 04 00 	mov    %rcx,0x450(%rsp)
  10079f:	00 
  1007a0:	48 89 84 24 58 04 00 	mov    %rax,0x458(%rsp)
  1007a7:	00 
  1007a8:	48 8b 8c 24 50 04 00 	mov    0x450(%rsp),%rcx
  1007af:	00 
  1007b0:	48 8b 84 24 58 04 00 	mov    0x458(%rsp),%rax
  1007b7:	00 
  1007b8:	48 89 8c 24 f8 02 00 	mov    %rcx,0x2f8(%rsp)
  1007bf:	00 
  1007c0:	48 89 84 24 00 03 00 	mov    %rax,0x300(%rsp)
  1007c7:	00 
  1007c8:	48 8d 35 89 1d 02 00 	lea    0x21d89(%rip),%rsi        # 122558 <str.0+0x1a8>
  1007cf:	48 8d bc 24 c8 02 00 	lea    0x2c8(%rsp),%rdi
  1007d6:	00 
  1007d7:	48 89 3c 24          	mov    %rdi,(%rsp)
  1007db:	ba 02 00 00 00       	mov    $0x2,%edx
  1007e0:	48 8d 8c 24 f8 02 00 	lea    0x2f8(%rsp),%rcx
  1007e7:	00 
  1007e8:	41 b8 01 00 00 00    	mov    $0x1,%r8d
  1007ee:	e8 5d b1 01 00       	call   11b950 <_ZN4core3fmt9Arguments6new_v117he9961337dc0bce50E>
  1007f3:	48 8b 34 24          	mov    (%rsp),%rsi
  1007f7:	48 8d bc 24 c7 02 00 	lea    0x2c7(%rsp),%rdi
  1007fe:	00 
  1007ff:	e8 4c 40 00 00       	call   104850 <_ZN4core3fmt5Write9write_fmt17hccb14a4ded65d011E>
  100804:	0f b6 f8             	movzbl %al,%edi
  100807:	48 8d 35 6a 1d 02 00 	lea    0x21d6a(%rip),%rsi        # 122578 <str.0+0x1c8>
  10080e:	e8 1d 51 01 00       	call   115930 <_ZN4core6result19Result$LT$T$C$E$GT$6unwrap17h501db31922113f90E>
  100813:	48 8b bc 24 00 02 00 	mov    0x200(%rsp),%rdi
  10081a:	00 
  10081b:	48 8b b4 24 b8 02 00 	mov    0x2b8(%rsp),%rsi
  100822:	00 
  100823:	e8 38 21 00 00       	call   102960 <_ZN9bubble_os3mem27simple_page_frame_allocator24SimplePageFrameAllocator3new17h4f0421b958dc4b2dE>
  100828:	48 89 94 24 10 03 00 	mov    %rdx,0x310(%rsp)
  10082f:	00 
  100830:	48 89 84 24 08 03 00 	mov    %rax,0x308(%rsp)
  100837:	00 
  100838:	48 8d bc 24 08 03 00 	lea    0x308(%rsp),%rdi
  10083f:	00 
  100840:	e8 6b 21 00 00       	call   1029b0 <_ZN124_$LT$bubble_os..mem..simple_page_frame_allocator..SimplePageFrameAllocator$u20$as$u20$bubble_os..mem..PageFrameAllocator$GT$6falloc17h199366ededbc5462E>
  100845:	48 89 c7             	mov    %rax,%rdi
  100848:	48 89 d6             	mov    %rdx,%rsi
  10084b:	48 8d 15 3e 1d 02 00 	lea    0x21d3e(%rip),%rdx        # 122590 <str.0+0x1e0>
  100852:	e8 f9 09 00 00       	call   101250 <_ZN4core6option15Option$LT$T$GT$6unwrap17hd987612f30fe2322E>
  100857:	48 8d bc 24 08 03 00 	lea    0x308(%rsp),%rdi
  10085e:	00 
  10085f:	48 8d 74 24 70       	lea    0x70(%rsp),%rsi
  100864:	e8 67 17 00 00       	call   101fd0 <_ZN9bubble_os3mem6paging12remap_kernel17hbe7184b803560315E>
  100869:	48 8d bc 24 20 03 00 	lea    0x320(%rsp),%rdi
  100870:	00 
  100871:	48 8d 35 30 1d 02 00 	lea    0x21d30(%rip),%rsi        # 1225a8 <str.0+0x1f8>
  100878:	ba 01 00 00 00       	mov    $0x1,%edx
  10087d:	e8 de b1 01 00       	call   11ba60 <_ZN4core3fmt9Arguments9new_const17h6199737f6aa61dd0E>
  100882:	48 8d bc 24 1f 03 00 	lea    0x31f(%rsp),%rdi
  100889:	00 
  10088a:	48 8d b4 24 20 03 00 	lea    0x320(%rsp),%rsi
  100891:	00 
  100892:	e8 b9 3f 00 00       	call   104850 <_ZN4core3fmt5Write9write_fmt17hccb14a4ded65d011E>
  100897:	0f b6 f8             	movzbl %al,%edi
  10089a:	83 e7 01             	and    $0x1,%edi
  10089d:	48 8d 35 14 1d 02 00 	lea    0x21d14(%rip),%rsi        # 1225b8 <str.0+0x208>
  1008a4:	e8 87 50 01 00       	call   115930 <_ZN4core6result19Result$LT$T$C$E$GT$6unwrap17h501db31922113f90E>
  1008a9:	eb 18                	jmp    1008c3 <rust_main+0x763>
  1008ab:	48 8b 74 24 18       	mov    0x18(%rsp),%rsi
  1008b0:	48 8b 7c 24 20       	mov    0x20(%rsp),%rdi
  1008b5:	48 8d 15 84 1c 02 00 	lea    0x21c84(%rip),%rdx        # 122540 <str.0+0x190>
  1008bc:	e8 df 64 01 00       	call   116da0 <_ZN4core9panicking18panic_bounds_check17h8a4f161c923f519cE>
  1008c1:	0f 0b                	ud2
  1008c3:	eb fe                	jmp    1008c3 <rust_main+0x763>
  1008c5:	66 2e 0f 1f 84 00 00 	cs nopw 0x0(%rax,%rax,1)
  1008cc:	00 00 00 
  1008cf:	90                   	nop

00000000001008d0 <rust_begin_unwind>:
  1008d0:	48 81 ec d8 00 00 00 	sub    $0xd8,%rsp
  1008d7:	48 89 7c 24 78       	mov    %rdi,0x78(%rsp)
  1008dc:	e8 1f 62 01 00       	call   116b00 <_ZN4core5panic10panic_info9PanicInfo8location17hc65ca0611204b14bE>
  1008e1:	48 89 c7             	mov    %rax,%rdi
  1008e4:	48 8d 35 2d 1d 02 00 	lea    0x21d2d(%rip),%rsi        # 122618 <str.0+0x268>
  1008eb:	e8 10 09 00 00       	call   101200 <_ZN4core6option15Option$LT$T$GT$6unwrap17h90796cfb6c6cd91aE>
  1008f0:	48 89 c7             	mov    %rax,%rdi
  1008f3:	48 89 f8             	mov    %rdi,%rax
  1008f6:	48 89 04 24          	mov    %rax,(%rsp)
  1008fa:	48 89 bc 24 80 00 00 	mov    %rdi,0x80(%rsp)
  100901:	00 
  100902:	e8 19 b5 01 00       	call   11be20 <_ZN4core5panic8location8Location4file17hc043109d0e1fe1d4E>
  100907:	48 8b 3c 24          	mov    (%rsp),%rdi
  10090b:	48 89 54 24 18       	mov    %rdx,0x18(%rsp)
  100910:	48 89 44 24 10       	mov    %rax,0x10(%rsp)
  100915:	e8 16 b5 01 00       	call   11be30 <_ZN4core5panic8location8Location4line17hbc545503047a2e1bE>
  10091a:	83 c0 01             	add    $0x1,%eax
  10091d:	89 44 24 0c          	mov    %eax,0xc(%rsp)
  100921:	0f 92 c0             	setb   %al
  100924:	a8 01                	test   $0x1,%al
  100926:	0f 85 e8 00 00 00    	jne    100a14 <rust_begin_unwind+0x144>
  10092c:	8b 44 24 0c          	mov    0xc(%rsp),%eax
  100930:	89 44 24 20          	mov    %eax,0x20(%rsp)
  100934:	48 8d 4c 24 20       	lea    0x20(%rsp),%rcx
  100939:	48 89 8c 24 88 00 00 	mov    %rcx,0x88(%rsp)
  100940:	00 
  100941:	48 89 8c 24 a0 00 00 	mov    %rcx,0xa0(%rsp)
  100948:	00 
  100949:	48 8d 05 e0 13 00 00 	lea    0x13e0(%rip),%rax        # 101d30 <_ZN4core3fmt3num50_$LT$impl$u20$core..fmt..Debug$u20$for$u20$u32$GT$3fmt17h5fecac5d68125786E>
  100950:	48 89 84 24 a8 00 00 	mov    %rax,0xa8(%rsp)
  100957:	00 
  100958:	48 89 8c 24 90 00 00 	mov    %rcx,0x90(%rsp)
  10095f:	00 
  100960:	48 89 84 24 98 00 00 	mov    %rax,0x98(%rsp)
  100967:	00 
  100968:	48 8b b4 24 90 00 00 	mov    0x90(%rsp),%rsi
  10096f:	00 
  100970:	48 8b 94 24 98 00 00 	mov    0x98(%rsp),%rdx
  100977:	00 
  100978:	48 8d 4c 24 10       	lea    0x10(%rsp),%rcx
  10097d:	48 89 8c 24 b0 00 00 	mov    %rcx,0xb0(%rsp)
  100984:	00 
  100985:	48 89 8c 24 c8 00 00 	mov    %rcx,0xc8(%rsp)
  10098c:	00 
  10098d:	48 8d 05 dc 48 00 00 	lea    0x48dc(%rip),%rax        # 105270 <_ZN42_$LT$$RF$T$u20$as$u20$core..fmt..Debug$GT$3fmt17h20bea7263ef8e958E>
  100994:	48 89 84 24 d0 00 00 	mov    %rax,0xd0(%rsp)
  10099b:	00 
  10099c:	48 89 8c 24 b8 00 00 	mov    %rcx,0xb8(%rsp)
  1009a3:	00 
  1009a4:	48 89 84 24 c0 00 00 	mov    %rax,0xc0(%rsp)
  1009ab:	00 
  1009ac:	48 8b 8c 24 b8 00 00 	mov    0xb8(%rsp),%rcx
  1009b3:	00 
  1009b4:	48 8b 84 24 c0 00 00 	mov    0xc0(%rsp),%rax
  1009bb:	00 
  1009bc:	48 89 74 24 58       	mov    %rsi,0x58(%rsp)
  1009c1:	48 89 54 24 60       	mov    %rdx,0x60(%rsp)
  1009c6:	48 89 4c 24 68       	mov    %rcx,0x68(%rsp)
  1009cb:	48 89 44 24 70       	mov    %rax,0x70(%rsp)
  1009d0:	48 8d 7c 24 28       	lea    0x28(%rsp),%rdi
  1009d5:	48 8d 35 6c 1c 02 00 	lea    0x21c6c(%rip),%rsi        # 122648 <str.0+0x298>
  1009dc:	ba 03 00 00 00       	mov    $0x3,%edx
  1009e1:	48 8d 4c 24 58       	lea    0x58(%rsp),%rcx
  1009e6:	41 b8 02 00 00 00    	mov    $0x2,%r8d
  1009ec:	e8 5f af 01 00       	call   11b950 <_ZN4core3fmt9Arguments6new_v117he9961337dc0bce50E>
  1009f1:	48 8d 7c 24 27       	lea    0x27(%rsp),%rdi
  1009f6:	48 8d 74 24 28       	lea    0x28(%rsp),%rsi
  1009fb:	e8 50 3e 00 00       	call   104850 <_ZN4core3fmt5Write9write_fmt17hccb14a4ded65d011E>
  100a00:	0f b6 f8             	movzbl %al,%edi
  100a03:	83 e7 01             	and    $0x1,%edi
  100a06:	48 8d 35 6b 1c 02 00 	lea    0x21c6b(%rip),%rsi        # 122678 <str.0+0x2c8>
  100a0d:	e8 1e 4f 01 00       	call   115930 <_ZN4core6result19Result$LT$T$C$E$GT$6unwrap17h501db31922113f90E>
  100a12:	eb 1a                	jmp    100a2e <rust_begin_unwind+0x15e>
  100a14:	48 8d 3d a5 d5 01 00 	lea    0x1d5a5(%rip),%rdi        # 11dfc0 <str.0>
  100a1b:	48 8d 15 0e 1c 02 00 	lea    0x21c0e(%rip),%rdx        # 122630 <str.0+0x280>
  100a22:	be 1c 00 00 00       	mov    $0x1c,%esi
  100a27:	e8 24 62 01 00       	call   116c50 <_ZN4core9panicking5panic17h13a0ad3e62cace8fE>
  100a2c:	0f 0b                	ud2
  100a2e:	eb fe                	jmp    100a2e <rust_begin_unwind+0x15e>

0000000000100a30 <_ZN4core3ptr9const_ptr33_$LT$impl$u20$$BP$const$u20$T$GT$10is_aligned17hd8519bd7a7c6724eE>:
  100a30:	50                   	push   %rax
  100a31:	48 89 3c 24          	mov    %rdi,(%rsp)
  100a35:	be 08 00 00 00       	mov    $0x8,%esi
  100a3a:	e8 11 00 00 00       	call   100a50 <_ZN4core3ptr9const_ptr33_$LT$impl$u20$$BP$const$u20$T$GT$13is_aligned_to17ha3e16900a9488eeeE>
  100a3f:	24 01                	and    $0x1,%al
  100a41:	0f b6 c0             	movzbl %al,%eax
  100a44:	59                   	pop    %rcx
  100a45:	c3                   	ret
  100a46:	66 2e 0f 1f 84 00 00 	cs nopw 0x0(%rax,%rax,1)
  100a4d:	00 00 00 

0000000000100a50 <_ZN4core3ptr9const_ptr33_$LT$impl$u20$$BP$const$u20$T$GT$13is_aligned_to17ha3e16900a9488eeeE>:
  100a50:	48 81 ec 88 00 00 00 	sub    $0x88,%rsp
  100a57:	48 89 f1             	mov    %rsi,%rcx
  100a5a:	48 89 4c 24 08       	mov    %rcx,0x8(%rsp)
  100a5f:	48 89 7c 24 10       	mov    %rdi,0x10(%rsp)
  100a64:	48 89 7c 24 58       	mov    %rdi,0x58(%rsp)
  100a69:	48 89 4c 24 60       	mov    %rcx,0x60(%rsp)
  100a6e:	48 89 4c 24 68       	mov    %rcx,0x68(%rsp)
  100a73:	48 89 4c 24 70       	mov    %rcx,0x70(%rsp)
  100a78:	48 89 c8             	mov    %rcx,%rax
  100a7b:	48 d1 e8             	shr    $1,%rax
  100a7e:	48 ba 55 55 55 55 55 	movabs $0x5555555555555555,%rdx
  100a85:	55 55 55 
  100a88:	48 21 d0             	and    %rdx,%rax
  100a8b:	48 29 c1             	sub    %rax,%rcx
  100a8e:	48 ba 33 33 33 33 33 	movabs $0x3333333333333333,%rdx
  100a95:	33 33 33 
  100a98:	48 89 c8             	mov    %rcx,%rax
  100a9b:	48 21 d0             	and    %rdx,%rax
  100a9e:	48 c1 e9 02          	shr    $0x2,%rcx
  100aa2:	48 21 d1             	and    %rdx,%rcx
  100aa5:	48 01 c8             	add    %rcx,%rax
  100aa8:	48 89 c1             	mov    %rax,%rcx
  100aab:	48 c1 e9 04          	shr    $0x4,%rcx
  100aaf:	48 01 c8             	add    %rcx,%rax
  100ab2:	48 b9 0f 0f 0f 0f 0f 	movabs $0xf0f0f0f0f0f0f0f,%rcx
  100ab9:	0f 0f 0f 
  100abc:	48 21 c8             	and    %rcx,%rax
  100abf:	48 b9 01 01 01 01 01 	movabs $0x101010101010101,%rcx
  100ac6:	01 01 01 
  100ac9:	48 0f af c1          	imul   %rcx,%rax
  100acd:	48 c1 e8 38          	shr    $0x38,%rax
  100ad1:	48 89 44 24 78       	mov    %rax,0x78(%rsp)
  100ad6:	48 8b 44 24 78       	mov    0x78(%rsp),%rax
  100adb:	83 f8 01             	cmp    $0x1,%eax
  100ade:	74 2c                	je     100b0c <_ZN4core3ptr9const_ptr33_$LT$impl$u20$$BP$const$u20$T$GT$13is_aligned_to17ha3e16900a9488eeeE+0xbc>
  100ae0:	48 8d 35 a9 1b 02 00 	lea    0x21ba9(%rip),%rsi        # 122690 <str.0+0x2e0>
  100ae7:	48 8d 7c 24 18       	lea    0x18(%rsp),%rdi
  100aec:	48 89 3c 24          	mov    %rdi,(%rsp)
  100af0:	ba 01 00 00 00       	mov    $0x1,%edx
  100af5:	e8 66 af 01 00       	call   11ba60 <_ZN4core3fmt9Arguments9new_const17h6199737f6aa61dd0E>
  100afa:	48 8b 3c 24          	mov    (%rsp),%rdi
  100afe:	48 8d 35 9b 1b 02 00 	lea    0x21b9b(%rip),%rsi        # 1226a0 <str.0+0x2f0>
  100b05:	e8 16 60 01 00       	call   116b20 <_ZN4core9panicking9panic_fmt17hcb17563f9e9a6761E>
  100b0a:	0f 0b                	ud2
  100b0c:	48 8b 44 24 08       	mov    0x8(%rsp),%rax
  100b11:	48 8b 4c 24 10       	mov    0x10(%rsp),%rcx
  100b16:	48 89 8c 24 80 00 00 	mov    %rcx,0x80(%rsp)
  100b1d:	00 
  100b1e:	48 89 4c 24 48       	mov    %rcx,0x48(%rsp)
  100b23:	48 89 44 24 50       	mov    %rax,0x50(%rsp)
  100b28:	48 8b 7c 24 48       	mov    0x48(%rsp),%rdi
  100b2d:	48 8b 74 24 50       	mov    0x50(%rsp),%rsi
  100b32:	e8 49 b2 01 00       	call   11bd80 <_ZN4core3ptr9const_ptr33_$LT$impl$u20$$BP$const$u20$T$GT$13is_aligned_to12runtime_impl17hd3cc8364f42cdc6aE>
  100b37:	24 01                	and    $0x1,%al
  100b39:	0f b6 c0             	movzbl %al,%eax
  100b3c:	48 81 c4 88 00 00 00 	add    $0x88,%rsp
  100b43:	c3                   	ret
  100b44:	66 2e 0f 1f 84 00 00 	cs nopw 0x0(%rax,%rax,1)
  100b4b:	00 00 00 
  100b4e:	66 90                	xchg   %ax,%ax

0000000000100b50 <_ZN4core3ptr9const_ptr33_$LT$impl$u20$$BP$const$u20$T$GT$7is_null17h70899062b0a5ad71E>:
  100b50:	48 83 ec 18          	sub    $0x18,%rsp
  100b54:	48 89 7c 24 10       	mov    %rdi,0x10(%rsp)
  100b59:	48 89 7c 24 08       	mov    %rdi,0x8(%rsp)
  100b5e:	48 8b 7c 24 08       	mov    0x8(%rsp),%rdi
  100b63:	e8 88 b2 01 00       	call   11bdf0 <_ZN4core3ptr9const_ptr33_$LT$impl$u20$$BP$const$u20$T$GT$7is_null12runtime_impl17h57908d1675ab5445E>
  100b68:	24 01                	and    $0x1,%al
  100b6a:	0f b6 c0             	movzbl %al,%eax
  100b6d:	48 83 c4 18          	add    $0x18,%rsp
  100b71:	c3                   	ret
  100b72:	66 2e 0f 1f 84 00 00 	cs nopw 0x0(%rax,%rax,1)
  100b79:	00 00 00 
  100b7c:	0f 1f 40 00          	nopl   0x0(%rax)

0000000000100b80 <_ZN4core6option15Option$LT$T$GT$3map17h00adee4f6ef6b6ddE>:
  100b80:	48 83 ec 68          	sub    $0x68,%rsp
  100b84:	48 89 74 24 08       	mov    %rsi,0x8(%rsp)
  100b89:	48 89 7c 24 10       	mov    %rdi,0x10(%rsp)
  100b8e:	48 89 74 24 60       	mov    %rsi,0x60(%rsp)
  100b93:	c6 44 24 5f 00       	movb   $0x0,0x5f(%rsp)
  100b98:	c6 44 24 5f 01       	movb   $0x1,0x5f(%rsp)
  100b9d:	48 83 3f 00          	cmpq   $0x0,(%rdi)
  100ba1:	75 0b                	jne    100bae <_ZN4core6option15Option$LT$T$GT$3map17h00adee4f6ef6b6ddE+0x2e>
  100ba3:	48 c7 44 24 18 00 00 	movq   $0x0,0x18(%rsp)
  100baa:	00 00 
  100bac:	eb 60                	jmp    100c0e <_ZN4core6option15Option$LT$T$GT$3map17h00adee4f6ef6b6ddE+0x8e>
  100bae:	48 8b 7c 24 08       	mov    0x8(%rsp),%rdi
  100bb3:	48 8b 44 24 10       	mov    0x10(%rsp),%rax
  100bb8:	48 8b 48 08          	mov    0x8(%rax),%rcx
  100bbc:	48 89 4c 24 28       	mov    %rcx,0x28(%rsp)
  100bc1:	48 8b 48 10          	mov    0x10(%rax),%rcx
  100bc5:	48 89 4c 24 30       	mov    %rcx,0x30(%rsp)
  100bca:	48 8b 40 18          	mov    0x18(%rax),%rax
  100bce:	48 89 44 24 38       	mov    %rax,0x38(%rsp)
  100bd3:	c6 44 24 5f 00       	movb   $0x0,0x5f(%rsp)
  100bd8:	48 8b 44 24 28       	mov    0x28(%rsp),%rax
  100bdd:	48 89 44 24 40       	mov    %rax,0x40(%rsp)
  100be2:	48 8b 44 24 30       	mov    0x30(%rsp),%rax
  100be7:	48 89 44 24 48       	mov    %rax,0x48(%rsp)
  100bec:	48 8b 44 24 38       	mov    0x38(%rsp),%rax
  100bf1:	48 89 44 24 50       	mov    %rax,0x50(%rsp)
  100bf6:	48 8d 74 24 40       	lea    0x40(%rsp),%rsi
  100bfb:	e8 d0 3c 00 00       	call   1048d0 <_ZN4core3ops8function5impls80_$LT$impl$u20$core..ops..function..FnOnce$LT$A$GT$$u20$for$u20$$RF$mut$u20$F$GT$9call_once17h568f4f3d44a724a7E>
  100c00:	48 89 44 24 20       	mov    %rax,0x20(%rsp)
  100c05:	48 c7 44 24 18 01 00 	movq   $0x1,0x18(%rsp)
  100c0c:	00 00 
  100c0e:	f6 44 24 5f 01       	testb  $0x1,0x5f(%rsp)
  100c13:	75 0f                	jne    100c24 <_ZN4core6option15Option$LT$T$GT$3map17h00adee4f6ef6b6ddE+0xa4>
  100c15:	48 8b 44 24 18       	mov    0x18(%rsp),%rax
  100c1a:	48 8b 54 24 20       	mov    0x20(%rsp),%rdx
  100c1f:	48 83 c4 68          	add    $0x68,%rsp
  100c23:	c3                   	ret
  100c24:	eb ef                	jmp    100c15 <_ZN4core6option15Option$LT$T$GT$3map17h00adee4f6ef6b6ddE+0x95>
  100c26:	66 2e 0f 1f 84 00 00 	cs nopw 0x0(%rax,%rax,1)
  100c2d:	00 00 00 

0000000000100c30 <_ZN4core6option15Option$LT$T$GT$3map17h2e8ad560c2f86b56E>:
  100c30:	48 83 ec 38          	sub    $0x38,%rsp
  100c34:	48 89 7c 24 08       	mov    %rdi,0x8(%rsp)
  100c39:	48 89 74 24 10       	mov    %rsi,0x10(%rsp)
  100c3e:	c6 44 24 2e 00       	movb   $0x0,0x2e(%rsp)
  100c43:	c6 44 24 2e 01       	movb   $0x1,0x2e(%rsp)
  100c48:	48 83 7c 24 08 00    	cmpq   $0x0,0x8(%rsp)
  100c4e:	75 0b                	jne    100c5b <_ZN4core6option15Option$LT$T$GT$3map17h2e8ad560c2f86b56E+0x2b>
  100c50:	48 c7 44 24 18 00 00 	movq   $0x0,0x18(%rsp)
  100c57:	00 00 
  100c59:	eb 23                	jmp    100c7e <_ZN4core6option15Option$LT$T$GT$3map17h2e8ad560c2f86b56E+0x4e>
  100c5b:	48 8b 44 24 10       	mov    0x10(%rsp),%rax
  100c60:	48 89 44 24 30       	mov    %rax,0x30(%rsp)
  100c65:	c6 44 24 2e 00       	movb   $0x0,0x2e(%rsp)
  100c6a:	48 89 44 24 20       	mov    %rax,0x20(%rsp)
  100c6f:	48 8b 7c 24 20       	mov    0x20(%rsp),%rdi
  100c74:	e8 e7 2d 00 00       	call   103a60 <_ZN9bubble_os3mem6paging10page_table18PageTable$LT$L$GT$10next_table28_$u7b$$u7b$closure$u7d$$u7d$17h4e9e39d8eddcf7d3E>
  100c79:	48 89 44 24 18       	mov    %rax,0x18(%rsp)
  100c7e:	f6 44 24 2e 01       	testb  $0x1,0x2e(%rsp)
  100c83:	75 0a                	jne    100c8f <_ZN4core6option15Option$LT$T$GT$3map17h2e8ad560c2f86b56E+0x5f>
  100c85:	48 8b 44 24 18       	mov    0x18(%rsp),%rax
  100c8a:	48 83 c4 38          	add    $0x38,%rsp
  100c8e:	c3                   	ret
  100c8f:	eb f4                	jmp    100c85 <_ZN4core6option15Option$LT$T$GT$3map17h2e8ad560c2f86b56E+0x55>
  100c91:	66 2e 0f 1f 84 00 00 	cs nopw 0x0(%rax,%rax,1)
  100c98:	00 00 00 
  100c9b:	0f 1f 44 00 00       	nopl   0x0(%rax,%rax,1)

0000000000100ca0 <_ZN4core6option15Option$LT$T$GT$3map17h36b3e29d40509df3E>:
  100ca0:	48 83 ec 68          	sub    $0x68,%rsp
  100ca4:	48 89 74 24 08       	mov    %rsi,0x8(%rsp)
  100ca9:	48 89 7c 24 10       	mov    %rdi,0x10(%rsp)
  100cae:	48 89 74 24 60       	mov    %rsi,0x60(%rsp)
  100cb3:	c6 44 24 5f 00       	movb   $0x0,0x5f(%rsp)
  100cb8:	c6 44 24 5f 01       	movb   $0x1,0x5f(%rsp)
  100cbd:	48 83 3f 00          	cmpq   $0x0,(%rdi)
  100cc1:	75 0b                	jne    100cce <_ZN4core6option15Option$LT$T$GT$3map17h36b3e29d40509df3E+0x2e>
  100cc3:	48 c7 44 24 18 00 00 	movq   $0x0,0x18(%rsp)
  100cca:	00 00 
  100ccc:	eb 60                	jmp    100d2e <_ZN4core6option15Option$LT$T$GT$3map17h36b3e29d40509df3E+0x8e>
  100cce:	48 8b 7c 24 08       	mov    0x8(%rsp),%rdi
  100cd3:	48 8b 44 24 10       	mov    0x10(%rsp),%rax
  100cd8:	48 8b 48 08          	mov    0x8(%rax),%rcx
  100cdc:	48 89 4c 24 28       	mov    %rcx,0x28(%rsp)
  100ce1:	48 8b 48 10          	mov    0x10(%rax),%rcx
  100ce5:	48 89 4c 24 30       	mov    %rcx,0x30(%rsp)
  100cea:	48 8b 40 18          	mov    0x18(%rax),%rax
  100cee:	48 89 44 24 38       	mov    %rax,0x38(%rsp)
  100cf3:	c6 44 24 5f 00       	movb   $0x0,0x5f(%rsp)
  100cf8:	48 8b 44 24 28       	mov    0x28(%rsp),%rax
  100cfd:	48 89 44 24 40       	mov    %rax,0x40(%rsp)
  100d02:	48 8b 44 24 30       	mov    0x30(%rsp),%rax
  100d07:	48 89 44 24 48       	mov    %rax,0x48(%rsp)
  100d0c:	48 8b 44 24 38       	mov    0x38(%rsp),%rax
  100d11:	48 89 44 24 50       	mov    %rax,0x50(%rsp)
  100d16:	48 8d 74 24 40       	lea    0x40(%rsp),%rsi
  100d1b:	e8 f0 3b 00 00       	call   104910 <_ZN4core3ops8function5impls80_$LT$impl$u20$core..ops..function..FnOnce$LT$A$GT$$u20$for$u20$$RF$mut$u20$F$GT$9call_once17ha76b64a741f2a22eE>
  100d20:	48 89 44 24 20       	mov    %rax,0x20(%rsp)
  100d25:	48 c7 44 24 18 01 00 	movq   $0x1,0x18(%rsp)
  100d2c:	00 00 
  100d2e:	f6 44 24 5f 01       	testb  $0x1,0x5f(%rsp)
  100d33:	75 0f                	jne    100d44 <_ZN4core6option15Option$LT$T$GT$3map17h36b3e29d40509df3E+0xa4>
  100d35:	48 8b 44 24 18       	mov    0x18(%rsp),%rax
  100d3a:	48 8b 54 24 20       	mov    0x20(%rsp),%rdx
  100d3f:	48 83 c4 68          	add    $0x68,%rsp
  100d43:	c3                   	ret
  100d44:	eb ef                	jmp    100d35 <_ZN4core6option15Option$LT$T$GT$3map17h36b3e29d40509df3E+0x95>
  100d46:	66 2e 0f 1f 84 00 00 	cs nopw 0x0(%rax,%rax,1)
  100d4d:	00 00 00 

0000000000100d50 <_ZN4core6option15Option$LT$T$GT$3map17h54d137cf71384cffE>:
  100d50:	48 83 ec 38          	sub    $0x38,%rsp
  100d54:	48 89 7c 24 08       	mov    %rdi,0x8(%rsp)
  100d59:	48 89 74 24 10       	mov    %rsi,0x10(%rsp)
  100d5e:	c6 44 24 2e 00       	movb   $0x0,0x2e(%rsp)
  100d63:	c6 44 24 2e 01       	movb   $0x1,0x2e(%rsp)
  100d68:	48 83 7c 24 08 00    	cmpq   $0x0,0x8(%rsp)
  100d6e:	75 0b                	jne    100d7b <_ZN4core6option15Option$LT$T$GT$3map17h54d137cf71384cffE+0x2b>
  100d70:	48 c7 44 24 18 00 00 	movq   $0x0,0x18(%rsp)
  100d77:	00 00 
  100d79:	eb 23                	jmp    100d9e <_ZN4core6option15Option$LT$T$GT$3map17h54d137cf71384cffE+0x4e>
  100d7b:	48 8b 44 24 10       	mov    0x10(%rsp),%rax
  100d80:	48 89 44 24 30       	mov    %rax,0x30(%rsp)
  100d85:	c6 44 24 2e 00       	movb   $0x0,0x2e(%rsp)
  100d8a:	48 89 44 24 20       	mov    %rax,0x20(%rsp)
  100d8f:	48 8b 7c 24 20       	mov    0x20(%rsp),%rdi
  100d94:	e8 b7 2d 00 00       	call   103b50 <_ZN9bubble_os3mem6paging10page_table18PageTable$LT$L$GT$14next_table_mut28_$u7b$$u7b$closure$u7d$$u7d$17h57d60fa41c418507E>
  100d99:	48 89 44 24 18       	mov    %rax,0x18(%rsp)
  100d9e:	f6 44 24 2e 01       	testb  $0x1,0x2e(%rsp)
  100da3:	75 0a                	jne    100daf <_ZN4core6option15Option$LT$T$GT$3map17h54d137cf71384cffE+0x5f>
  100da5:	48 8b 44 24 18       	mov    0x18(%rsp),%rax
  100daa:	48 83 c4 38          	add    $0x38,%rsp
  100dae:	c3                   	ret
  100daf:	eb f4                	jmp    100da5 <_ZN4core6option15Option$LT$T$GT$3map17h54d137cf71384cffE+0x55>
  100db1:	66 2e 0f 1f 84 00 00 	cs nopw 0x0(%rax,%rax,1)
  100db8:	00 00 00 
  100dbb:	0f 1f 44 00 00       	nopl   0x0(%rax,%rax,1)

0000000000100dc0 <_ZN4core6option15Option$LT$T$GT$3map17h6b987d3403aa008bE>:
  100dc0:	48 83 ec 38          	sub    $0x38,%rsp
  100dc4:	48 89 7c 24 08       	mov    %rdi,0x8(%rsp)
  100dc9:	48 89 74 24 10       	mov    %rsi,0x10(%rsp)
  100dce:	c6 44 24 2e 00       	movb   $0x0,0x2e(%rsp)
  100dd3:	c6 44 24 2e 01       	movb   $0x1,0x2e(%rsp)
  100dd8:	48 83 7c 24 08 00    	cmpq   $0x0,0x8(%rsp)
  100dde:	75 0b                	jne    100deb <_ZN4core6option15Option$LT$T$GT$3map17h6b987d3403aa008bE+0x2b>
  100de0:	48 c7 44 24 18 00 00 	movq   $0x0,0x18(%rsp)
  100de7:	00 00 
  100de9:	eb 23                	jmp    100e0e <_ZN4core6option15Option$LT$T$GT$3map17h6b987d3403aa008bE+0x4e>
  100deb:	48 8b 44 24 10       	mov    0x10(%rsp),%rax
  100df0:	48 89 44 24 30       	mov    %rax,0x30(%rsp)
  100df5:	c6 44 24 2e 00       	movb   $0x0,0x2e(%rsp)
  100dfa:	48 89 44 24 20       	mov    %rax,0x20(%rsp)
  100dff:	48 8b 7c 24 20       	mov    0x20(%rsp),%rdi
  100e04:	e8 27 2d 00 00       	call   103b30 <_ZN9bubble_os3mem6paging10page_table18PageTable$LT$L$GT$14next_table_mut28_$u7b$$u7b$closure$u7d$$u7d$17h03fa4916b1c473b3E>
  100e09:	48 89 44 24 18       	mov    %rax,0x18(%rsp)
  100e0e:	f6 44 24 2e 01       	testb  $0x1,0x2e(%rsp)
  100e13:	75 0a                	jne    100e1f <_ZN4core6option15Option$LT$T$GT$3map17h6b987d3403aa008bE+0x5f>
  100e15:	48 8b 44 24 18       	mov    0x18(%rsp),%rax
  100e1a:	48 83 c4 38          	add    $0x38,%rsp
  100e1e:	c3                   	ret
  100e1f:	eb f4                	jmp    100e15 <_ZN4core6option15Option$LT$T$GT$3map17h6b987d3403aa008bE+0x55>
  100e21:	66 2e 0f 1f 84 00 00 	cs nopw 0x0(%rax,%rax,1)
  100e28:	00 00 00 
  100e2b:	0f 1f 44 00 00       	nopl   0x0(%rax,%rax,1)

0000000000100e30 <_ZN4core6option15Option$LT$T$GT$3map17hadb994080ea2b0b1E>:
  100e30:	48 83 ec 38          	sub    $0x38,%rsp
  100e34:	48 89 7c 24 08       	mov    %rdi,0x8(%rsp)
  100e39:	48 89 74 24 10       	mov    %rsi,0x10(%rsp)
  100e3e:	c6 44 24 2e 00       	movb   $0x0,0x2e(%rsp)
  100e43:	c6 44 24 2e 01       	movb   $0x1,0x2e(%rsp)
  100e48:	48 83 7c 24 08 00    	cmpq   $0x0,0x8(%rsp)
  100e4e:	75 0b                	jne    100e5b <_ZN4core6option15Option$LT$T$GT$3map17hadb994080ea2b0b1E+0x2b>
  100e50:	48 c7 44 24 18 00 00 	movq   $0x0,0x18(%rsp)
  100e57:	00 00 
  100e59:	eb 23                	jmp    100e7e <_ZN4core6option15Option$LT$T$GT$3map17hadb994080ea2b0b1E+0x4e>
  100e5b:	48 8b 44 24 10       	mov    0x10(%rsp),%rax
  100e60:	48 89 44 24 30       	mov    %rax,0x30(%rsp)
  100e65:	c6 44 24 2e 00       	movb   $0x0,0x2e(%rsp)
  100e6a:	48 89 44 24 20       	mov    %rax,0x20(%rsp)
  100e6f:	48 8b 7c 24 20       	mov    0x20(%rsp),%rdi
  100e74:	e8 c7 2b 00 00       	call   103a40 <_ZN9bubble_os3mem6paging10page_table18PageTable$LT$L$GT$10next_table28_$u7b$$u7b$closure$u7d$$u7d$17h49563011e591fc83E>
  100e79:	48 89 44 24 18       	mov    %rax,0x18(%rsp)
  100e7e:	f6 44 24 2e 01       	testb  $0x1,0x2e(%rsp)
  100e83:	75 0a                	jne    100e8f <_ZN4core6option15Option$LT$T$GT$3map17hadb994080ea2b0b1E+0x5f>
  100e85:	48 8b 44 24 18       	mov    0x18(%rsp),%rax
  100e8a:	48 83 c4 38          	add    $0x38,%rsp
  100e8e:	c3                   	ret
  100e8f:	eb f4                	jmp    100e85 <_ZN4core6option15Option$LT$T$GT$3map17hadb994080ea2b0b1E+0x55>
  100e91:	66 2e 0f 1f 84 00 00 	cs nopw 0x0(%rax,%rax,1)
  100e98:	00 00 00 
  100e9b:	0f 1f 44 00 00       	nopl   0x0(%rax,%rax,1)

0000000000100ea0 <_ZN4core6option15Option$LT$T$GT$3map17hb69b518564ff2f75E>:
  100ea0:	48 83 ec 48          	sub    $0x48,%rsp
  100ea4:	48 89 14 24          	mov    %rdx,(%rsp)
  100ea8:	48 89 7c 24 08       	mov    %rdi,0x8(%rsp)
  100ead:	48 89 74 24 10       	mov    %rsi,0x10(%rsp)
  100eb2:	48 89 54 24 38       	mov    %rdx,0x38(%rsp)
  100eb7:	c6 44 24 37 00       	movb   $0x0,0x37(%rsp)
  100ebc:	c6 44 24 37 01       	movb   $0x1,0x37(%rsp)
  100ec1:	48 83 7c 24 08 00    	cmpq   $0x0,0x8(%rsp)
  100ec7:	75 0b                	jne    100ed4 <_ZN4core6option15Option$LT$T$GT$3map17hb69b518564ff2f75E+0x34>
  100ec9:	48 c7 44 24 18 00 00 	movq   $0x0,0x18(%rsp)
  100ed0:	00 00 
  100ed2:	eb 30                	jmp    100f04 <_ZN4core6option15Option$LT$T$GT$3map17hb69b518564ff2f75E+0x64>
  100ed4:	48 8b 3c 24          	mov    (%rsp),%rdi
  100ed8:	48 8b 44 24 10       	mov    0x10(%rsp),%rax
  100edd:	48 89 44 24 40       	mov    %rax,0x40(%rsp)
  100ee2:	c6 44 24 37 00       	movb   $0x0,0x37(%rsp)
  100ee7:	48 89 44 24 28       	mov    %rax,0x28(%rsp)
  100eec:	48 8b 74 24 28       	mov    0x28(%rsp),%rsi
  100ef1:	e8 5a 20 00 00       	call   102f50 <_ZN9bubble_os3mem6paging11page_mapper6Mapper17translate_to_phys28_$u7b$$u7b$closure$u7d$$u7d$17hf11ac8bc09c22fbfE>
  100ef6:	48 89 44 24 20       	mov    %rax,0x20(%rsp)
  100efb:	48 c7 44 24 18 01 00 	movq   $0x1,0x18(%rsp)
  100f02:	00 00 
  100f04:	f6 44 24 37 01       	testb  $0x1,0x37(%rsp)
  100f09:	75 0f                	jne    100f1a <_ZN4core6option15Option$LT$T$GT$3map17hb69b518564ff2f75E+0x7a>
  100f0b:	48 8b 44 24 18       	mov    0x18(%rsp),%rax
  100f10:	48 8b 54 24 20       	mov    0x20(%rsp),%rdx
  100f15:	48 83 c4 48          	add    $0x48,%rsp
  100f19:	c3                   	ret
  100f1a:	eb ef                	jmp    100f0b <_ZN4core6option15Option$LT$T$GT$3map17hb69b518564ff2f75E+0x6b>
  100f1c:	0f 1f 40 00          	nopl   0x0(%rax)

0000000000100f20 <_ZN4core6option15Option$LT$T$GT$3map17hfdf0a19cbbf142ebE>:
  100f20:	48 83 ec 38          	sub    $0x38,%rsp
  100f24:	48 89 7c 24 08       	mov    %rdi,0x8(%rsp)
  100f29:	48 89 74 24 10       	mov    %rsi,0x10(%rsp)
  100f2e:	c6 44 24 2e 00       	movb   $0x0,0x2e(%rsp)
  100f33:	c6 44 24 2e 01       	movb   $0x1,0x2e(%rsp)
  100f38:	48 83 7c 24 08 00    	cmpq   $0x0,0x8(%rsp)
  100f3e:	75 0b                	jne    100f4b <_ZN4core6option15Option$LT$T$GT$3map17hfdf0a19cbbf142ebE+0x2b>
  100f40:	48 c7 44 24 18 00 00 	movq   $0x0,0x18(%rsp)
  100f47:	00 00 
  100f49:	eb 23                	jmp    100f6e <_ZN4core6option15Option$LT$T$GT$3map17hfdf0a19cbbf142ebE+0x4e>
  100f4b:	48 8b 44 24 10       	mov    0x10(%rsp),%rax
  100f50:	48 89 44 24 30       	mov    %rax,0x30(%rsp)
  100f55:	c6 44 24 2e 00       	movb   $0x0,0x2e(%rsp)
  100f5a:	48 89 44 24 20       	mov    %rax,0x20(%rsp)
  100f5f:	48 8b 7c 24 20       	mov    0x20(%rsp),%rdi
  100f64:	e8 17 2b 00 00       	call   103a80 <_ZN9bubble_os3mem6paging10page_table18PageTable$LT$L$GT$10next_table28_$u7b$$u7b$closure$u7d$$u7d$17hf355fe53a89b0e9fE>
  100f69:	48 89 44 24 18       	mov    %rax,0x18(%rsp)
  100f6e:	f6 44 24 2e 01       	testb  $0x1,0x2e(%rsp)
  100f73:	75 0a                	jne    100f7f <_ZN4core6option15Option$LT$T$GT$3map17hfdf0a19cbbf142ebE+0x5f>
  100f75:	48 8b 44 24 18       	mov    0x18(%rsp),%rax
  100f7a:	48 83 c4 38          	add    $0x38,%rsp
  100f7e:	c3                   	ret
  100f7f:	eb f4                	jmp    100f75 <_ZN4core6option15Option$LT$T$GT$3map17hfdf0a19cbbf142ebE+0x55>
  100f81:	66 2e 0f 1f 84 00 00 	cs nopw 0x0(%rax,%rax,1)
  100f88:	00 00 00 
  100f8b:	0f 1f 44 00 00       	nopl   0x0(%rax,%rax,1)

0000000000100f90 <_ZN4core6option15Option$LT$T$GT$3map17hfeb46d25697aabffE>:
  100f90:	48 83 ec 38          	sub    $0x38,%rsp
  100f94:	48 89 7c 24 08       	mov    %rdi,0x8(%rsp)
  100f99:	48 89 74 24 10       	mov    %rsi,0x10(%rsp)
  100f9e:	c6 44 24 2e 00       	movb   $0x0,0x2e(%rsp)
  100fa3:	c6 44 24 2e 01       	movb   $0x1,0x2e(%rsp)
  100fa8:	48 83 7c 24 08 00    	cmpq   $0x0,0x8(%rsp)
  100fae:	75 0b                	jne    100fbb <_ZN4core6option15Option$LT$T$GT$3map17hfeb46d25697aabffE+0x2b>
  100fb0:	48 c7 44 24 18 00 00 	movq   $0x0,0x18(%rsp)
  100fb7:	00 00 
  100fb9:	eb 23                	jmp    100fde <_ZN4core6option15Option$LT$T$GT$3map17hfeb46d25697aabffE+0x4e>
  100fbb:	48 8b 44 24 10       	mov    0x10(%rsp),%rax
  100fc0:	48 89 44 24 30       	mov    %rax,0x30(%rsp)
  100fc5:	c6 44 24 2e 00       	movb   $0x0,0x2e(%rsp)
  100fca:	48 89 44 24 20       	mov    %rax,0x20(%rsp)
  100fcf:	48 8b 7c 24 20       	mov    0x20(%rsp),%rdi
  100fd4:	e8 97 2b 00 00       	call   103b70 <_ZN9bubble_os3mem6paging10page_table18PageTable$LT$L$GT$14next_table_mut28_$u7b$$u7b$closure$u7d$$u7d$17hf6e09527df64376fE>
  100fd9:	48 89 44 24 18       	mov    %rax,0x18(%rsp)
  100fde:	f6 44 24 2e 01       	testb  $0x1,0x2e(%rsp)
  100fe3:	75 0a                	jne    100fef <_ZN4core6option15Option$LT$T$GT$3map17hfeb46d25697aabffE+0x5f>
  100fe5:	48 8b 44 24 18       	mov    0x18(%rsp),%rax
  100fea:	48 83 c4 38          	add    $0x38,%rsp
  100fee:	c3                   	ret
  100fef:	eb f4                	jmp    100fe5 <_ZN4core6option15Option$LT$T$GT$3map17hfeb46d25697aabffE+0x55>
  100ff1:	66 2e 0f 1f 84 00 00 	cs nopw 0x0(%rax,%rax,1)
  100ff8:	00 00 00 
  100ffb:	0f 1f 44 00 00       	nopl   0x0(%rax,%rax,1)

0000000000101000 <_ZN4core6option15Option$LT$T$GT$4take17h88f7e9ef9e6da50dE>:
  101000:	48 83 ec 18          	sub    $0x18,%rsp
  101004:	48 89 7c 24 10       	mov    %rdi,0x10(%rsp)
  101009:	48 c7 04 24 00 00 00 	movq   $0x0,(%rsp)
  101010:	00 
  101011:	48 8b 34 24          	mov    (%rsp),%rsi
  101015:	48 8b 54 24 08       	mov    0x8(%rsp),%rdx
  10101a:	e8 a1 08 00 00       	call   1018c0 <_ZN4core3mem7replace17hf2f96f7ec2073f06E>
  10101f:	48 83 c4 18          	add    $0x18,%rsp
  101023:	c3                   	ret
  101024:	66 2e 0f 1f 84 00 00 	cs nopw 0x0(%rax,%rax,1)
  10102b:	00 00 00 
  10102e:	66 90                	xchg   %ax,%ax

0000000000101030 <_ZN4core6option15Option$LT$T$GT$6expect17ha16a9941e3a6ebe1E>:
  101030:	48 83 ec 38          	sub    $0x38,%rsp
  101034:	48 89 0c 24          	mov    %rcx,(%rsp)
  101038:	48 89 54 24 08       	mov    %rdx,0x8(%rsp)
  10103d:	48 89 74 24 10       	mov    %rsi,0x10(%rsp)
  101042:	48 89 7c 24 18       	mov    %rdi,0x18(%rsp)
  101047:	48 89 74 24 20       	mov    %rsi,0x20(%rsp)
  10104c:	48 89 54 24 28       	mov    %rdx,0x28(%rsp)
  101051:	48 8b 54 24 18       	mov    0x18(%rsp),%rdx
  101056:	b8 01 00 00 00       	mov    $0x1,%eax
  10105b:	31 c9                	xor    %ecx,%ecx
  10105d:	48 83 fa 00          	cmp    $0x0,%rdx
  101061:	48 0f 44 c1          	cmove  %rcx,%rax
  101065:	48 83 f8 00          	cmp    $0x0,%rax
  101069:	75 15                	jne    101080 <_ZN4core6option15Option$LT$T$GT$6expect17ha16a9941e3a6ebe1E+0x50>
  10106b:	48 8b 14 24          	mov    (%rsp),%rdx
  10106f:	48 8b 74 24 08       	mov    0x8(%rsp),%rsi
  101074:	48 8b 7c 24 10       	mov    0x10(%rsp),%rdi
  101079:	e8 f2 ac 00 00       	call   10bd70 <_ZN4core6option13expect_failed17h21f6bcb69ff290b6E>
  10107e:	0f 0b                	ud2
  101080:	48 8b 44 24 18       	mov    0x18(%rsp),%rax
  101085:	48 89 44 24 30       	mov    %rax,0x30(%rsp)
  10108a:	48 83 c4 38          	add    $0x38,%rsp
  10108e:	c3                   	ret
  10108f:	90                   	nop

0000000000101090 <_ZN4core6option15Option$LT$T$GT$6expect17he90c8d483c5c796dE>:
  101090:	48 83 ec 48          	sub    $0x48,%rsp
  101094:	4c 89 44 24 08       	mov    %r8,0x8(%rsp)
  101099:	48 89 4c 24 10       	mov    %rcx,0x10(%rsp)
  10109e:	48 89 54 24 18       	mov    %rdx,0x18(%rsp)
  1010a3:	48 89 7c 24 20       	mov    %rdi,0x20(%rsp)
  1010a8:	48 89 74 24 28       	mov    %rsi,0x28(%rsp)
  1010ad:	48 89 54 24 30       	mov    %rdx,0x30(%rsp)
  1010b2:	48 89 4c 24 38       	mov    %rcx,0x38(%rsp)
  1010b7:	48 83 7c 24 20 00    	cmpq   $0x0,0x20(%rsp)
  1010bd:	75 16                	jne    1010d5 <_ZN4core6option15Option$LT$T$GT$6expect17he90c8d483c5c796dE+0x45>
  1010bf:	48 8b 54 24 08       	mov    0x8(%rsp),%rdx
  1010c4:	48 8b 74 24 10       	mov    0x10(%rsp),%rsi
  1010c9:	48 8b 7c 24 18       	mov    0x18(%rsp),%rdi
  1010ce:	e8 9d ac 00 00       	call   10bd70 <_ZN4core6option13expect_failed17h21f6bcb69ff290b6E>
  1010d3:	0f 0b                	ud2
  1010d5:	48 8b 44 24 28       	mov    0x28(%rsp),%rax
  1010da:	48 89 44 24 40       	mov    %rax,0x40(%rsp)
  1010df:	48 83 c4 48          	add    $0x48,%rsp
  1010e3:	c3                   	ret
  1010e4:	66 2e 0f 1f 84 00 00 	cs nopw 0x0(%rax,%rax,1)
  1010eb:	00 00 00 
  1010ee:	66 90                	xchg   %ax,%ax

00000000001010f0 <_ZN4core6option15Option$LT$T$GT$6unwrap17h2a1cc5b70e9c206bE>:
  1010f0:	48 83 ec 28          	sub    $0x28,%rsp
  1010f4:	48 89 54 24 08       	mov    %rdx,0x8(%rsp)
  1010f9:	48 89 74 24 10       	mov    %rsi,0x10(%rsp)
  1010fe:	48 89 7c 24 18       	mov    %rdi,0x18(%rsp)
  101103:	48 89 7c 24 20       	mov    %rdi,0x20(%rsp)
  101108:	48 83 3e 00          	cmpq   $0x0,(%rsi)
  10110c:	75 18                	jne    101126 <_ZN4core6option15Option$LT$T$GT$6unwrap17h2a1cc5b70e9c206bE+0x36>
  10110e:	48 8b 54 24 08       	mov    0x8(%rsp),%rdx
  101113:	48 8d 3d a8 d0 01 00 	lea    0x1d0a8(%rip),%rdi        # 11e1c2 <str.1+0x152>
  10111a:	be 2b 00 00 00       	mov    $0x2b,%esi
  10111f:	e8 2c 5b 01 00       	call   116c50 <_ZN4core9panicking5panic17h13a0ad3e62cace8fE>
  101124:	0f 0b                	ud2
  101126:	48 8b 44 24 20       	mov    0x20(%rsp),%rax
  10112b:	48 8b 4c 24 18       	mov    0x18(%rsp),%rcx
  101130:	48 8b 54 24 10       	mov    0x10(%rsp),%rdx
  101135:	48 8b 72 08          	mov    0x8(%rdx),%rsi
  101139:	48 89 31             	mov    %rsi,(%rcx)
  10113c:	48 8b 72 10          	mov    0x10(%rdx),%rsi
  101140:	48 89 71 08          	mov    %rsi,0x8(%rcx)
  101144:	48 8b 52 18          	mov    0x18(%rdx),%rdx
  101148:	48 89 51 10          	mov    %rdx,0x10(%rcx)
  10114c:	48 83 c4 28          	add    $0x28,%rsp
  101150:	c3                   	ret
  101151:	66 2e 0f 1f 84 00 00 	cs nopw 0x0(%rax,%rax,1)
  101158:	00 00 00 
  10115b:	0f 1f 44 00 00       	nopl   0x0(%rax,%rax,1)

0000000000101160 <_ZN4core6option15Option$LT$T$GT$6unwrap17h327f639cc00f5f43E>:
  101160:	48 83 ec 18          	sub    $0x18,%rsp
  101164:	48 89 34 24          	mov    %rsi,(%rsp)
  101168:	48 89 7c 24 08       	mov    %rdi,0x8(%rsp)
  10116d:	48 8b 54 24 08       	mov    0x8(%rsp),%rdx
  101172:	b8 01 00 00 00       	mov    $0x1,%eax
  101177:	31 c9                	xor    %ecx,%ecx
  101179:	48 83 fa 00          	cmp    $0x0,%rdx
  10117d:	48 0f 44 c1          	cmove  %rcx,%rax
  101181:	48 83 f8 00          	cmp    $0x0,%rax
  101185:	75 17                	jne    10119e <_ZN4core6option15Option$LT$T$GT$6unwrap17h327f639cc00f5f43E+0x3e>
  101187:	48 8b 14 24          	mov    (%rsp),%rdx
  10118b:	48 8d 3d 30 d0 01 00 	lea    0x1d030(%rip),%rdi        # 11e1c2 <str.1+0x152>
  101192:	be 2b 00 00 00       	mov    $0x2b,%esi
  101197:	e8 b4 5a 01 00       	call   116c50 <_ZN4core9panicking5panic17h13a0ad3e62cace8fE>
  10119c:	0f 0b                	ud2
  10119e:	48 8b 44 24 08       	mov    0x8(%rsp),%rax
  1011a3:	48 89 44 24 10       	mov    %rax,0x10(%rsp)
  1011a8:	48 83 c4 18          	add    $0x18,%rsp
  1011ac:	c3                   	ret
  1011ad:	0f 1f 00             	nopl   (%rax)

00000000001011b0 <_ZN4core6option15Option$LT$T$GT$6unwrap17h454c9306039c47b3E>:
  1011b0:	48 83 ec 18          	sub    $0x18,%rsp
  1011b4:	48 89 34 24          	mov    %rsi,(%rsp)
  1011b8:	48 89 7c 24 08       	mov    %rdi,0x8(%rsp)
  1011bd:	48 8b 54 24 08       	mov    0x8(%rsp),%rdx
  1011c2:	b8 01 00 00 00       	mov    $0x1,%eax
  1011c7:	31 c9                	xor    %ecx,%ecx
  1011c9:	48 83 fa 00          	cmp    $0x0,%rdx
  1011cd:	48 0f 44 c1          	cmove  %rcx,%rax
  1011d1:	48 83 f8 00          	cmp    $0x0,%rax
  1011d5:	75 17                	jne    1011ee <_ZN4core6option15Option$LT$T$GT$6unwrap17h454c9306039c47b3E+0x3e>
  1011d7:	48 8b 14 24          	mov    (%rsp),%rdx
  1011db:	48 8d 3d e0 cf 01 00 	lea    0x1cfe0(%rip),%rdi        # 11e1c2 <str.1+0x152>
  1011e2:	be 2b 00 00 00       	mov    $0x2b,%esi
  1011e7:	e8 64 5a 01 00       	call   116c50 <_ZN4core9panicking5panic17h13a0ad3e62cace8fE>
  1011ec:	0f 0b                	ud2
  1011ee:	48 8b 44 24 08       	mov    0x8(%rsp),%rax
  1011f3:	48 89 44 24 10       	mov    %rax,0x10(%rsp)
  1011f8:	48 83 c4 18          	add    $0x18,%rsp
  1011fc:	c3                   	ret
  1011fd:	0f 1f 00             	nopl   (%rax)

0000000000101200 <_ZN4core6option15Option$LT$T$GT$6unwrap17h90796cfb6c6cd91aE>:
  101200:	48 83 ec 18          	sub    $0x18,%rsp
  101204:	48 89 34 24          	mov    %rsi,(%rsp)
  101208:	48 89 7c 24 08       	mov    %rdi,0x8(%rsp)
  10120d:	48 8b 54 24 08       	mov    0x8(%rsp),%rdx
  101212:	b8 01 00 00 00       	mov    $0x1,%eax
  101217:	31 c9                	xor    %ecx,%ecx
  101219:	48 83 fa 00          	cmp    $0x0,%rdx
  10121d:	48 0f 44 c1          	cmove  %rcx,%rax
  101221:	48 83 f8 00          	cmp    $0x0,%rax
  101225:	75 17                	jne    10123e <_ZN4core6option15Option$LT$T$GT$6unwrap17h90796cfb6c6cd91aE+0x3e>
  101227:	48 8b 14 24          	mov    (%rsp),%rdx
  10122b:	48 8d 3d 90 cf 01 00 	lea    0x1cf90(%rip),%rdi        # 11e1c2 <str.1+0x152>
  101232:	be 2b 00 00 00       	mov    $0x2b,%esi
  101237:	e8 14 5a 01 00       	call   116c50 <_ZN4core9panicking5panic17h13a0ad3e62cace8fE>
  10123c:	0f 0b                	ud2
  10123e:	48 8b 44 24 08       	mov    0x8(%rsp),%rax
  101243:	48 89 44 24 10       	mov    %rax,0x10(%rsp)
  101248:	48 83 c4 18          	add    $0x18,%rsp
  10124c:	c3                   	ret
  10124d:	0f 1f 00             	nopl   (%rax)

0000000000101250 <_ZN4core6option15Option$LT$T$GT$6unwrap17hd987612f30fe2322E>:
  101250:	48 83 ec 28          	sub    $0x28,%rsp
  101254:	48 89 54 24 08       	mov    %rdx,0x8(%rsp)
  101259:	48 89 7c 24 10       	mov    %rdi,0x10(%rsp)
  10125e:	48 89 74 24 18       	mov    %rsi,0x18(%rsp)
  101263:	48 83 7c 24 10 00    	cmpq   $0x0,0x10(%rsp)
  101269:	75 18                	jne    101283 <_ZN4core6option15Option$LT$T$GT$6unwrap17hd987612f30fe2322E+0x33>
  10126b:	48 8b 54 24 08       	mov    0x8(%rsp),%rdx
  101270:	48 8d 3d 4b cf 01 00 	lea    0x1cf4b(%rip),%rdi        # 11e1c2 <str.1+0x152>
  101277:	be 2b 00 00 00       	mov    $0x2b,%esi
  10127c:	e8 cf 59 01 00       	call   116c50 <_ZN4core9panicking5panic17h13a0ad3e62cace8fE>
  101281:	0f 0b                	ud2
  101283:	48 8b 44 24 18       	mov    0x18(%rsp),%rax
  101288:	48 89 44 24 20       	mov    %rax,0x20(%rsp)
  10128d:	48 83 c4 28          	add    $0x28,%rsp
  101291:	c3                   	ret
  101292:	66 2e 0f 1f 84 00 00 	cs nopw 0x0(%rax,%rax,1)
  101299:	00 00 00 
  10129c:	0f 1f 40 00          	nopl   0x0(%rax)

00000000001012a0 <_ZN4core6option15Option$LT$T$GT$6unwrap17hec97db5936be925fE>:
  1012a0:	48 83 ec 28          	sub    $0x28,%rsp
  1012a4:	48 89 54 24 08       	mov    %rdx,0x8(%rsp)
  1012a9:	48 89 74 24 10       	mov    %rsi,0x10(%rsp)
  1012ae:	48 89 7c 24 18       	mov    %rdi,0x18(%rsp)
  1012b3:	48 89 7c 24 20       	mov    %rdi,0x20(%rsp)
  1012b8:	b8 01 00 00 00       	mov    $0x1,%eax
  1012bd:	31 c9                	xor    %ecx,%ecx
  1012bf:	48 83 3e 02          	cmpq   $0x2,(%rsi)
  1012c3:	48 0f 44 c1          	cmove  %rcx,%rax
  1012c7:	48 83 f8 00          	cmp    $0x0,%rax
  1012cb:	75 18                	jne    1012e5 <_ZN4core6option15Option$LT$T$GT$6unwrap17hec97db5936be925fE+0x45>
  1012cd:	48 8b 54 24 08       	mov    0x8(%rsp),%rdx
  1012d2:	48 8d 3d e9 ce 01 00 	lea    0x1cee9(%rip),%rdi        # 11e1c2 <str.1+0x152>
  1012d9:	be 2b 00 00 00       	mov    $0x2b,%esi
  1012de:	e8 6d 59 01 00       	call   116c50 <_ZN4core9panicking5panic17h13a0ad3e62cace8fE>
  1012e3:	0f 0b                	ud2
  1012e5:	48 8b 74 24 10       	mov    0x10(%rsp),%rsi
  1012ea:	48 8b 7c 24 18       	mov    0x18(%rsp),%rdi
  1012ef:	ba 38 00 00 00       	mov    $0x38,%edx
  1012f4:	e8 f7 76 00 00       	call   1089f0 <memcpy>
  1012f9:	48 8b 44 24 20       	mov    0x20(%rsp),%rax
  1012fe:	48 83 c4 28          	add    $0x28,%rsp
  101302:	c3                   	ret
  101303:	66 2e 0f 1f 84 00 00 	cs nopw 0x0(%rax,%rax,1)
  10130a:	00 00 00 
  10130d:	0f 1f 00             	nopl   (%rax)

0000000000101310 <_ZN4core6option15Option$LT$T$GT$6unwrap17hf3e15e7367594e6eE>:
  101310:	48 83 ec 28          	sub    $0x28,%rsp
  101314:	48 89 14 24          	mov    %rdx,(%rsp)
  101318:	48 89 7c 24 08       	mov    %rdi,0x8(%rsp)
  10131d:	48 89 74 24 10       	mov    %rsi,0x10(%rsp)
  101322:	48 8b 54 24 08       	mov    0x8(%rsp),%rdx
  101327:	b8 01 00 00 00       	mov    $0x1,%eax
  10132c:	31 c9                	xor    %ecx,%ecx
  10132e:	48 83 fa 00          	cmp    $0x0,%rdx
  101332:	48 0f 44 c1          	cmove  %rcx,%rax
  101336:	48 83 f8 00          	cmp    $0x0,%rax
  10133a:	75 17                	jne    101353 <_ZN4core6option15Option$LT$T$GT$6unwrap17hf3e15e7367594e6eE+0x43>
  10133c:	48 8b 14 24          	mov    (%rsp),%rdx
  101340:	48 8d 3d 7b ce 01 00 	lea    0x1ce7b(%rip),%rdi        # 11e1c2 <str.1+0x152>
  101347:	be 2b 00 00 00       	mov    $0x2b,%esi
  10134c:	e8 ff 58 01 00       	call   116c50 <_ZN4core9panicking5panic17h13a0ad3e62cace8fE>
  101351:	0f 0b                	ud2
  101353:	48 8b 44 24 08       	mov    0x8(%rsp),%rax
  101358:	48 8b 54 24 10       	mov    0x10(%rsp),%rdx
  10135d:	48 89 44 24 18       	mov    %rax,0x18(%rsp)
  101362:	48 89 54 24 20       	mov    %rdx,0x20(%rsp)
  101367:	48 83 c4 28          	add    $0x28,%rsp
  10136b:	c3                   	ret
  10136c:	0f 1f 40 00          	nopl   0x0(%rax)

0000000000101370 <_ZN4core6option15Option$LT$T$GT$6unwrap17hfbb74fe1a15187a4E>:
  101370:	48 83 ec 18          	sub    $0x18,%rsp
  101374:	48 89 34 24          	mov    %rsi,(%rsp)
  101378:	48 89 7c 24 08       	mov    %rdi,0x8(%rsp)
  10137d:	48 8b 54 24 08       	mov    0x8(%rsp),%rdx
  101382:	b8 01 00 00 00       	mov    $0x1,%eax
  101387:	31 c9                	xor    %ecx,%ecx
  101389:	48 83 fa 00          	cmp    $0x0,%rdx
  10138d:	48 0f 44 c1          	cmove  %rcx,%rax
  101391:	48 83 f8 00          	cmp    $0x0,%rax
  101395:	75 17                	jne    1013ae <_ZN4core6option15Option$LT$T$GT$6unwrap17hfbb74fe1a15187a4E+0x3e>
  101397:	48 8b 14 24          	mov    (%rsp),%rdx
  10139b:	48 8d 3d 20 ce 01 00 	lea    0x1ce20(%rip),%rdi        # 11e1c2 <str.1+0x152>
  1013a2:	be 2b 00 00 00       	mov    $0x2b,%esi
  1013a7:	e8 a4 58 01 00       	call   116c50 <_ZN4core9panicking5panic17h13a0ad3e62cace8fE>
  1013ac:	0f 0b                	ud2
  1013ae:	48 8b 44 24 08       	mov    0x8(%rsp),%rax
  1013b3:	48 89 44 24 10       	mov    %rax,0x10(%rsp)
  1013b8:	48 83 c4 18          	add    $0x18,%rsp
  1013bc:	c3                   	ret
  1013bd:	0f 1f 00             	nopl   (%rax)

00000000001013c0 <_ZN4core6option15Option$LT$T$GT$7is_none17h81aec546004165c5E>:
  1013c0:	50                   	push   %rax
  1013c1:	48 89 3c 24          	mov    %rdi,(%rsp)
  1013c5:	e8 56 00 00 00       	call   101420 <_ZN4core6option15Option$LT$T$GT$7is_some17h34e485b7bca11d5fE>
  1013ca:	34 ff                	xor    $0xff,%al
  1013cc:	24 01                	and    $0x1,%al
  1013ce:	0f b6 c0             	movzbl %al,%eax
  1013d1:	59                   	pop    %rcx
  1013d2:	c3                   	ret
  1013d3:	66 2e 0f 1f 84 00 00 	cs nopw 0x0(%rax,%rax,1)
  1013da:	00 00 00 
  1013dd:	0f 1f 00             	nopl   (%rax)

00000000001013e0 <_ZN4core6option15Option$LT$T$GT$7is_none17hb2f73dbaf061ba16E>:
  1013e0:	50                   	push   %rax
  1013e1:	48 89 3c 24          	mov    %rdi,(%rsp)
  1013e5:	e8 66 00 00 00       	call   101450 <_ZN4core6option15Option$LT$T$GT$7is_some17h7bdd078def8a531dE>
  1013ea:	34 ff                	xor    $0xff,%al
  1013ec:	24 01                	and    $0x1,%al
  1013ee:	0f b6 c0             	movzbl %al,%eax
  1013f1:	59                   	pop    %rcx
  1013f2:	c3                   	ret
  1013f3:	66 2e 0f 1f 84 00 00 	cs nopw 0x0(%rax,%rax,1)
  1013fa:	00 00 00 
  1013fd:	0f 1f 00             	nopl   (%rax)

0000000000101400 <_ZN4core6option15Option$LT$T$GT$7is_none17he299cbb5f68af334E>:
  101400:	50                   	push   %rax
  101401:	48 89 3c 24          	mov    %rdi,(%rsp)
  101405:	e8 76 00 00 00       	call   101480 <_ZN4core6option15Option$LT$T$GT$7is_some17ha05dc8ef202a5253E>
  10140a:	34 ff                	xor    $0xff,%al
  10140c:	24 01                	and    $0x1,%al
  10140e:	0f b6 c0             	movzbl %al,%eax
  101411:	59                   	pop    %rcx
  101412:	c3                   	ret
  101413:	66 2e 0f 1f 84 00 00 	cs nopw 0x0(%rax,%rax,1)
  10141a:	00 00 00 
  10141d:	0f 1f 00             	nopl   (%rax)

0000000000101420 <_ZN4core6option15Option$LT$T$GT$7is_some17h34e485b7bca11d5fE>:
  101420:	50                   	push   %rax
  101421:	48 89 3c 24          	mov    %rdi,(%rsp)
  101425:	48 8b 17             	mov    (%rdi),%rdx
  101428:	b8 01 00 00 00       	mov    $0x1,%eax
  10142d:	31 c9                	xor    %ecx,%ecx
  10142f:	48 83 fa 00          	cmp    $0x0,%rdx
  101433:	48 0f 44 c1          	cmove  %rcx,%rax
  101437:	48 83 f8 01          	cmp    $0x1,%rax
  10143b:	0f 94 c0             	sete   %al
  10143e:	24 01                	and    $0x1,%al
  101440:	0f b6 c0             	movzbl %al,%eax
  101443:	59                   	pop    %rcx
  101444:	c3                   	ret
  101445:	66 2e 0f 1f 84 00 00 	cs nopw 0x0(%rax,%rax,1)
  10144c:	00 00 00 
  10144f:	90                   	nop

0000000000101450 <_ZN4core6option15Option$LT$T$GT$7is_some17h7bdd078def8a531dE>:
  101450:	50                   	push   %rax
  101451:	48 89 3c 24          	mov    %rdi,(%rsp)
  101455:	48 8b 17             	mov    (%rdi),%rdx
  101458:	b8 01 00 00 00       	mov    $0x1,%eax
  10145d:	31 c9                	xor    %ecx,%ecx
  10145f:	48 83 fa 00          	cmp    $0x0,%rdx
  101463:	48 0f 44 c1          	cmove  %rcx,%rax
  101467:	48 83 f8 01          	cmp    $0x1,%rax
  10146b:	0f 94 c0             	sete   %al
  10146e:	24 01                	and    $0x1,%al
  101470:	0f b6 c0             	movzbl %al,%eax
  101473:	59                   	pop    %rcx
  101474:	c3                   	ret
  101475:	66 2e 0f 1f 84 00 00 	cs nopw 0x0(%rax,%rax,1)
  10147c:	00 00 00 
  10147f:	90                   	nop

0000000000101480 <_ZN4core6option15Option$LT$T$GT$7is_some17ha05dc8ef202a5253E>:
  101480:	50                   	push   %rax
  101481:	48 89 3c 24          	mov    %rdi,(%rsp)
  101485:	48 8b 17             	mov    (%rdi),%rdx
  101488:	b8 01 00 00 00       	mov    $0x1,%eax
  10148d:	31 c9                	xor    %ecx,%ecx
  10148f:	48 83 fa 00          	cmp    $0x0,%rdx
  101493:	48 0f 44 c1          	cmove  %rcx,%rax
  101497:	48 83 f8 01          	cmp    $0x1,%rax
  10149b:	0f 94 c0             	sete   %al
  10149e:	24 01                	and    $0x1,%al
  1014a0:	0f b6 c0             	movzbl %al,%eax
  1014a3:	59                   	pop    %rcx
  1014a4:	c3                   	ret
  1014a5:	66 2e 0f 1f 84 00 00 	cs nopw 0x0(%rax,%rax,1)
  1014ac:	00 00 00 
  1014af:	90                   	nop

00000000001014b0 <_ZN4core6option15Option$LT$T$GT$7is_some17hac206730ecaec0ddE>:
  1014b0:	50                   	push   %rax
  1014b1:	48 89 3c 24          	mov    %rdi,(%rsp)
  1014b5:	48 83 3f 01          	cmpq   $0x1,(%rdi)
  1014b9:	0f 94 c0             	sete   %al
  1014bc:	24 01                	and    $0x1,%al
  1014be:	0f b6 c0             	movzbl %al,%eax
  1014c1:	59                   	pop    %rcx
  1014c2:	c3                   	ret
  1014c3:	66 2e 0f 1f 84 00 00 	cs nopw 0x0(%rax,%rax,1)
  1014ca:	00 00 00 
  1014cd:	0f 1f 00             	nopl   (%rax)

00000000001014d0 <_ZN4core6option15Option$LT$T$GT$7or_else17hdf451e752b774c74E>:
  1014d0:	48 83 ec 58          	sub    $0x58,%rsp
  1014d4:	48 89 0c 24          	mov    %rcx,(%rsp)
  1014d8:	48 89 54 24 08       	mov    %rdx,0x8(%rsp)
  1014dd:	48 89 7c 24 10       	mov    %rdi,0x10(%rsp)
  1014e2:	48 89 74 24 18       	mov    %rsi,0x18(%rsp)
  1014e7:	48 89 54 24 38       	mov    %rdx,0x38(%rsp)
  1014ec:	48 89 4c 24 40       	mov    %rcx,0x40(%rsp)
  1014f1:	c6 44 24 37 00       	movb   $0x0,0x37(%rsp)
  1014f6:	c6 44 24 36 00       	movb   $0x0,0x36(%rsp)
  1014fb:	c6 44 24 37 01       	movb   $0x1,0x37(%rsp)
  101500:	c6 44 24 36 01       	movb   $0x1,0x36(%rsp)
  101505:	48 83 7c 24 10 00    	cmpq   $0x0,0x10(%rsp)
  10150b:	75 1f                	jne    10152c <_ZN4core6option15Option$LT$T$GT$7or_else17hdf451e752b774c74E+0x5c>
  10150d:	48 8b 34 24          	mov    (%rsp),%rsi
  101511:	48 8b 7c 24 08       	mov    0x8(%rsp),%rdi
  101516:	c6 44 24 36 00       	movb   $0x0,0x36(%rsp)
  10151b:	e8 d0 08 00 00       	call   101df0 <_ZN4core3ops8function6FnOnce9call_once17h180ffaf20d24fee3E>
  101520:	48 89 54 24 28       	mov    %rdx,0x28(%rsp)
  101525:	48 89 44 24 20       	mov    %rax,0x20(%rsp)
  10152a:	eb 23                	jmp    10154f <_ZN4core6option15Option$LT$T$GT$7or_else17hdf451e752b774c74E+0x7f>
  10152c:	c6 44 24 37 00       	movb   $0x0,0x37(%rsp)
  101531:	48 8b 4c 24 10       	mov    0x10(%rsp),%rcx
  101536:	48 8b 44 24 18       	mov    0x18(%rsp),%rax
  10153b:	48 89 4c 24 48       	mov    %rcx,0x48(%rsp)
  101540:	48 89 44 24 50       	mov    %rax,0x50(%rsp)
  101545:	48 89 4c 24 20       	mov    %rcx,0x20(%rsp)
  10154a:	48 89 44 24 28       	mov    %rax,0x28(%rsp)
  10154f:	f6 44 24 36 01       	testb  $0x1,0x36(%rsp)
  101554:	75 09                	jne    10155f <_ZN4core6option15Option$LT$T$GT$7or_else17hdf451e752b774c74E+0x8f>
  101556:	f6 44 24 37 01       	testb  $0x1,0x37(%rsp)
  10155b:	75 13                	jne    101570 <_ZN4core6option15Option$LT$T$GT$7or_else17hdf451e752b774c74E+0xa0>
  10155d:	eb 02                	jmp    101561 <_ZN4core6option15Option$LT$T$GT$7or_else17hdf451e752b774c74E+0x91>
  10155f:	eb f5                	jmp    101556 <_ZN4core6option15Option$LT$T$GT$7or_else17hdf451e752b774c74E+0x86>
  101561:	48 8b 44 24 20       	mov    0x20(%rsp),%rax
  101566:	48 8b 54 24 28       	mov    0x28(%rsp),%rdx
  10156b:	48 83 c4 58          	add    $0x58,%rsp
  10156f:	c3                   	ret
  101570:	eb ef                	jmp    101561 <_ZN4core6option15Option$LT$T$GT$7or_else17hdf451e752b774c74E+0x91>
  101572:	66 2e 0f 1f 84 00 00 	cs nopw 0x0(%rax,%rax,1)
  101579:	00 00 00 
  10157c:	0f 1f 40 00          	nopl   0x0(%rax)

0000000000101580 <_ZN4core6option15Option$LT$T$GT$8and_then17h02d233d43e8ed03bE>:
  101580:	48 83 ec 38          	sub    $0x38,%rsp
  101584:	48 89 34 24          	mov    %rsi,(%rsp)
  101588:	48 89 7c 24 08       	mov    %rdi,0x8(%rsp)
  10158d:	48 89 74 24 28       	mov    %rsi,0x28(%rsp)
  101592:	c6 44 24 27 00       	movb   $0x0,0x27(%rsp)
  101597:	c6 44 24 27 01       	movb   $0x1,0x27(%rsp)
  10159c:	48 8b 54 24 08       	mov    0x8(%rsp),%rdx
  1015a1:	b8 01 00 00 00       	mov    $0x1,%eax
  1015a6:	31 c9                	xor    %ecx,%ecx
  1015a8:	48 83 fa 00          	cmp    $0x0,%rdx
  1015ac:	48 0f 44 c1          	cmove  %rcx,%rax
  1015b0:	48 83 f8 00          	cmp    $0x0,%rax
  1015b4:	75 0b                	jne    1015c1 <_ZN4core6option15Option$LT$T$GT$8and_then17h02d233d43e8ed03bE+0x41>
  1015b6:	48 c7 44 24 10 00 00 	movq   $0x0,0x10(%rsp)
  1015bd:	00 00 
  1015bf:	eb 27                	jmp    1015e8 <_ZN4core6option15Option$LT$T$GT$8and_then17h02d233d43e8ed03bE+0x68>
  1015c1:	48 8b 3c 24          	mov    (%rsp),%rdi
  1015c5:	48 8b 44 24 08       	mov    0x8(%rsp),%rax
  1015ca:	48 89 44 24 30       	mov    %rax,0x30(%rsp)
  1015cf:	c6 44 24 27 00       	movb   $0x0,0x27(%rsp)
  1015d4:	48 89 44 24 18       	mov    %rax,0x18(%rsp)
  1015d9:	48 8b 74 24 18       	mov    0x18(%rsp),%rsi
  1015de:	e8 9d 1d 00 00       	call   103380 <_ZN9bubble_os3mem6paging11page_mapper6Mapper14translate_page28_$u7b$$u7b$closure$u7d$$u7d$17hb71853f08a3eccd4E>
  1015e3:	48 89 44 24 10       	mov    %rax,0x10(%rsp)
  1015e8:	f6 44 24 27 01       	testb  $0x1,0x27(%rsp)
  1015ed:	75 0a                	jne    1015f9 <_ZN4core6option15Option$LT$T$GT$8and_then17h02d233d43e8ed03bE+0x79>
  1015ef:	48 8b 44 24 10       	mov    0x10(%rsp),%rax
  1015f4:	48 83 c4 38          	add    $0x38,%rsp
  1015f8:	c3                   	ret
  1015f9:	eb f4                	jmp    1015ef <_ZN4core6option15Option$LT$T$GT$8and_then17h02d233d43e8ed03bE+0x6f>
  1015fb:	0f 1f 44 00 00       	nopl   0x0(%rax,%rax,1)

0000000000101600 <_ZN4core6option15Option$LT$T$GT$8and_then17h7e7e540dd0e0fbb7E>:
  101600:	48 83 ec 38          	sub    $0x38,%rsp
  101604:	48 89 34 24          	mov    %rsi,(%rsp)
  101608:	48 89 7c 24 08       	mov    %rdi,0x8(%rsp)
  10160d:	48 89 74 24 28       	mov    %rsi,0x28(%rsp)
  101612:	c6 44 24 27 00       	movb   $0x0,0x27(%rsp)
  101617:	c6 44 24 27 01       	movb   $0x1,0x27(%rsp)
  10161c:	48 8b 54 24 08       	mov    0x8(%rsp),%rdx
  101621:	b8 01 00 00 00       	mov    $0x1,%eax
  101626:	31 c9                	xor    %ecx,%ecx
  101628:	48 83 fa 00          	cmp    $0x0,%rdx
  10162c:	48 0f 44 c1          	cmove  %rcx,%rax
  101630:	48 83 f8 00          	cmp    $0x0,%rax
  101634:	75 0b                	jne    101641 <_ZN4core6option15Option$LT$T$GT$8and_then17h7e7e540dd0e0fbb7E+0x41>
  101636:	48 c7 44 24 10 00 00 	movq   $0x0,0x10(%rsp)
  10163d:	00 00 
  10163f:	eb 27                	jmp    101668 <_ZN4core6option15Option$LT$T$GT$8and_then17h7e7e540dd0e0fbb7E+0x68>
  101641:	48 8b 3c 24          	mov    (%rsp),%rdi
  101645:	48 8b 44 24 08       	mov    0x8(%rsp),%rax
  10164a:	48 89 44 24 30       	mov    %rax,0x30(%rsp)
  10164f:	c6 44 24 27 00       	movb   $0x0,0x27(%rsp)
  101654:	48 89 44 24 18       	mov    %rax,0x18(%rsp)
  101659:	48 8b 74 24 18       	mov    0x18(%rsp),%rsi
  10165e:	e8 bd 18 00 00       	call   102f20 <_ZN9bubble_os3mem6paging11page_mapper6Mapper5unmap28_$u7b$$u7b$closure$u7d$$u7d$17h1f675b51c5901437E>
  101663:	48 89 44 24 10       	mov    %rax,0x10(%rsp)
  101668:	f6 44 24 27 01       	testb  $0x1,0x27(%rsp)
  10166d:	75 0a                	jne    101679 <_ZN4core6option15Option$LT$T$GT$8and_then17h7e7e540dd0e0fbb7E+0x79>
  10166f:	48 8b 44 24 10       	mov    0x10(%rsp),%rax
  101674:	48 83 c4 38          	add    $0x38,%rsp
  101678:	c3                   	ret
  101679:	eb f4                	jmp    10166f <_ZN4core6option15Option$LT$T$GT$8and_then17h7e7e540dd0e0fbb7E+0x6f>
  10167b:	0f 1f 44 00 00       	nopl   0x0(%rax,%rax,1)

0000000000101680 <_ZN4core6option15Option$LT$T$GT$8and_then17h85b885c641b0257aE>:
  101680:	48 83 ec 38          	sub    $0x38,%rsp
  101684:	48 89 34 24          	mov    %rsi,(%rsp)
  101688:	48 89 7c 24 08       	mov    %rdi,0x8(%rsp)
  10168d:	48 89 74 24 28       	mov    %rsi,0x28(%rsp)
  101692:	c6 44 24 27 00       	movb   $0x0,0x27(%rsp)
  101697:	c6 44 24 27 01       	movb   $0x1,0x27(%rsp)
  10169c:	48 8b 54 24 08       	mov    0x8(%rsp),%rdx
  1016a1:	b8 01 00 00 00       	mov    $0x1,%eax
  1016a6:	31 c9                	xor    %ecx,%ecx
  1016a8:	48 83 fa 00          	cmp    $0x0,%rdx
  1016ac:	48 0f 44 c1          	cmove  %rcx,%rax
  1016b0:	48 83 f8 00          	cmp    $0x0,%rax
  1016b4:	75 0b                	jne    1016c1 <_ZN4core6option15Option$LT$T$GT$8and_then17h85b885c641b0257aE+0x41>
  1016b6:	48 c7 44 24 10 00 00 	movq   $0x0,0x10(%rsp)
  1016bd:	00 00 
  1016bf:	eb 27                	jmp    1016e8 <_ZN4core6option15Option$LT$T$GT$8and_then17h85b885c641b0257aE+0x68>
  1016c1:	48 8b 3c 24          	mov    (%rsp),%rdi
  1016c5:	48 8b 44 24 08       	mov    0x8(%rsp),%rax
  1016ca:	48 89 44 24 30       	mov    %rax,0x30(%rsp)
  1016cf:	c6 44 24 27 00       	movb   $0x0,0x27(%rsp)
  1016d4:	48 89 44 24 18       	mov    %rax,0x18(%rsp)
  1016d9:	48 8b 74 24 18       	mov    0x18(%rsp),%rsi
  1016de:	e8 0d 18 00 00       	call   102ef0 <_ZN9bubble_os3mem6paging11page_mapper6Mapper5unmap28_$u7b$$u7b$closure$u7d$$u7d$17hc9afd1e7d650c111E>
  1016e3:	48 89 44 24 10       	mov    %rax,0x10(%rsp)
  1016e8:	f6 44 24 27 01       	testb  $0x1,0x27(%rsp)
  1016ed:	75 0a                	jne    1016f9 <_ZN4core6option15Option$LT$T$GT$8and_then17h85b885c641b0257aE+0x79>
  1016ef:	48 8b 44 24 10       	mov    0x10(%rsp),%rax
  1016f4:	48 83 c4 38          	add    $0x38,%rsp
  1016f8:	c3                   	ret
  1016f9:	eb f4                	jmp    1016ef <_ZN4core6option15Option$LT$T$GT$8and_then17h85b885c641b0257aE+0x6f>
  1016fb:	0f 1f 44 00 00       	nopl   0x0(%rax,%rax,1)

0000000000101700 <_ZN4core6option15Option$LT$T$GT$8and_then17h86d13c6f0b0b81adE>:
  101700:	48 83 ec 48          	sub    $0x48,%rsp
  101704:	48 89 74 24 08       	mov    %rsi,0x8(%rsp)
  101709:	48 89 7c 24 10       	mov    %rdi,0x10(%rsp)
  10170e:	48 89 74 24 38       	mov    %rsi,0x38(%rsp)
  101713:	c6 44 24 37 00       	movb   $0x0,0x37(%rsp)
  101718:	c6 44 24 37 01       	movb   $0x1,0x37(%rsp)
  10171d:	48 8b 54 24 10       	mov    0x10(%rsp),%rdx
  101722:	b8 01 00 00 00       	mov    $0x1,%eax
  101727:	31 c9                	xor    %ecx,%ecx
  101729:	48 83 fa 00          	cmp    $0x0,%rdx
  10172d:	48 0f 44 c1          	cmove  %rcx,%rax
  101731:	48 83 f8 00          	cmp    $0x0,%rax
  101735:	75 0b                	jne    101742 <_ZN4core6option15Option$LT$T$GT$8and_then17h86d13c6f0b0b81adE+0x42>
  101737:	48 c7 44 24 18 00 00 	movq   $0x0,0x18(%rsp)
  10173e:	00 00 
  101740:	eb 2d                	jmp    10176f <_ZN4core6option15Option$LT$T$GT$8and_then17h86d13c6f0b0b81adE+0x6f>
  101742:	48 8b 7c 24 08       	mov    0x8(%rsp),%rdi
  101747:	48 8b 44 24 10       	mov    0x10(%rsp),%rax
  10174c:	48 89 44 24 40       	mov    %rax,0x40(%rsp)
  101751:	c6 44 24 37 00       	movb   $0x0,0x37(%rsp)
  101756:	48 89 44 24 28       	mov    %rax,0x28(%rsp)
  10175b:	48 8b 74 24 28       	mov    0x28(%rsp),%rsi
  101760:	e8 4b 1c 00 00       	call   1033b0 <_ZN9bubble_os3mem6paging11page_mapper6Mapper14translate_page28_$u7b$$u7b$closure$u7d$$u7d$17h74e99c0af4d648c9E>
  101765:	48 89 54 24 20       	mov    %rdx,0x20(%rsp)
  10176a:	48 89 44 24 18       	mov    %rax,0x18(%rsp)
  10176f:	f6 44 24 37 01       	testb  $0x1,0x37(%rsp)
  101774:	75 0f                	jne    101785 <_ZN4core6option15Option$LT$T$GT$8and_then17h86d13c6f0b0b81adE+0x85>
  101776:	48 8b 44 24 18       	mov    0x18(%rsp),%rax
  10177b:	48 8b 54 24 20       	mov    0x20(%rsp),%rdx
  101780:	48 83 c4 48          	add    $0x48,%rsp
  101784:	c3                   	ret
  101785:	eb ef                	jmp    101776 <_ZN4core6option15Option$LT$T$GT$8and_then17h86d13c6f0b0b81adE+0x76>
  101787:	66 0f 1f 84 00 00 00 	nopw   0x0(%rax,%rax,1)
  10178e:	00 00 

0000000000101790 <_ZN4core6option15Option$LT$T$GT$8and_then17haf267730e069f05cE>:
  101790:	48 83 ec 38          	sub    $0x38,%rsp
  101794:	48 89 34 24          	mov    %rsi,(%rsp)
  101798:	48 89 7c 24 08       	mov    %rdi,0x8(%rsp)
  10179d:	48 89 74 24 28       	mov    %rsi,0x28(%rsp)
  1017a2:	c6 44 24 27 00       	movb   $0x0,0x27(%rsp)
  1017a7:	c6 44 24 27 01       	movb   $0x1,0x27(%rsp)
  1017ac:	48 8b 54 24 08       	mov    0x8(%rsp),%rdx
  1017b1:	b8 01 00 00 00       	mov    $0x1,%eax
  1017b6:	31 c9                	xor    %ecx,%ecx
  1017b8:	48 83 fa 00          	cmp    $0x0,%rdx
  1017bc:	48 0f 44 c1          	cmove  %rcx,%rax
  1017c0:	48 83 f8 00          	cmp    $0x0,%rax
  1017c4:	75 0b                	jne    1017d1 <_ZN4core6option15Option$LT$T$GT$8and_then17haf267730e069f05cE+0x41>
  1017c6:	48 c7 44 24 10 00 00 	movq   $0x0,0x10(%rsp)
  1017cd:	00 00 
  1017cf:	eb 27                	jmp    1017f8 <_ZN4core6option15Option$LT$T$GT$8and_then17haf267730e069f05cE+0x68>
  1017d1:	48 8b 3c 24          	mov    (%rsp),%rdi
  1017d5:	48 8b 44 24 08       	mov    0x8(%rsp),%rax
  1017da:	48 89 44 24 30       	mov    %rax,0x30(%rsp)
  1017df:	c6 44 24 27 00       	movb   $0x0,0x27(%rsp)
  1017e4:	48 89 44 24 18       	mov    %rax,0x18(%rsp)
  1017e9:	48 8b 74 24 18       	mov    0x18(%rsp),%rsi
  1017ee:	e8 5d 1b 00 00       	call   103350 <_ZN9bubble_os3mem6paging11page_mapper6Mapper14translate_page28_$u7b$$u7b$closure$u7d$$u7d$17h604934bcea23b541E>
  1017f3:	48 89 44 24 10       	mov    %rax,0x10(%rsp)
  1017f8:	f6 44 24 27 01       	testb  $0x1,0x27(%rsp)
  1017fd:	75 0a                	jne    101809 <_ZN4core6option15Option$LT$T$GT$8and_then17haf267730e069f05cE+0x79>
  1017ff:	48 8b 44 24 10       	mov    0x10(%rsp),%rax
  101804:	48 83 c4 38          	add    $0x38,%rsp
  101808:	c3                   	ret
  101809:	eb f4                	jmp    1017ff <_ZN4core6option15Option$LT$T$GT$8and_then17haf267730e069f05cE+0x6f>
  10180b:	0f 1f 44 00 00       	nopl   0x0(%rax,%rax,1)

0000000000101810 <_ZN4core6option15Option$LT$T$GT$8and_then17hd9708bf3bb924422E>:
  101810:	48 83 ec 48          	sub    $0x48,%rsp
  101814:	48 89 74 24 08       	mov    %rsi,0x8(%rsp)
  101819:	48 89 7c 24 10       	mov    %rdi,0x10(%rsp)
  10181e:	48 89 74 24 38       	mov    %rsi,0x38(%rsp)
  101823:	c6 44 24 37 00       	movb   $0x0,0x37(%rsp)
  101828:	c6 44 24 37 01       	movb   $0x1,0x37(%rsp)
  10182d:	48 8b 54 24 10       	mov    0x10(%rsp),%rdx
  101832:	b8 01 00 00 00       	mov    $0x1,%eax
  101837:	31 c9                	xor    %ecx,%ecx
  101839:	48 83 fa 00          	cmp    $0x0,%rdx
  10183d:	48 0f 44 c1          	cmove  %rcx,%rax
  101841:	48 83 f8 00          	cmp    $0x0,%rax
  101845:	75 0b                	jne    101852 <_ZN4core6option15Option$LT$T$GT$8and_then17hd9708bf3bb924422E+0x42>
  101847:	48 c7 44 24 18 00 00 	movq   $0x0,0x18(%rsp)
  10184e:	00 00 
  101850:	eb 2d                	jmp    10187f <_ZN4core6option15Option$LT$T$GT$8and_then17hd9708bf3bb924422E+0x6f>
  101852:	48 8b 7c 24 08       	mov    0x8(%rsp),%rdi
  101857:	48 8b 44 24 10       	mov    0x10(%rsp),%rax
  10185c:	48 89 44 24 40       	mov    %rax,0x40(%rsp)
  101861:	c6 44 24 37 00       	movb   $0x0,0x37(%rsp)
  101866:	48 89 44 24 28       	mov    %rax,0x28(%rsp)
  10186b:	48 8b 74 24 28       	mov    0x28(%rsp),%rsi
  101870:	e8 8b 17 00 00       	call   103000 <_ZN9bubble_os3mem6paging11page_mapper6Mapper14translate_page28_$u7b$$u7b$closure$u7d$$u7d$28_$u7b$$u7b$closure$u7d$$u7d$17h9c17d682c2c055c7E>
  101875:	48 89 54 24 20       	mov    %rdx,0x20(%rsp)
  10187a:	48 89 44 24 18       	mov    %rax,0x18(%rsp)
  10187f:	f6 44 24 37 01       	testb  $0x1,0x37(%rsp)
  101884:	75 0f                	jne    101895 <_ZN4core6option15Option$LT$T$GT$8and_then17hd9708bf3bb924422E+0x85>
  101886:	48 8b 44 24 18       	mov    0x18(%rsp),%rax
  10188b:	48 8b 54 24 20       	mov    0x20(%rsp),%rdx
  101890:	48 83 c4 48          	add    $0x48,%rsp
  101894:	c3                   	ret
  101895:	eb ef                	jmp    101886 <_ZN4core6option15Option$LT$T$GT$8and_then17hd9708bf3bb924422E+0x76>
  101897:	66 0f 1f 84 00 00 00 	nopw   0x0(%rax,%rax,1)
  10189e:	00 00 

00000000001018a0 <_ZN84_$LT$core..option..Option$LT$T$GT$$u20$as$u20$core..ops..try_trait..FromResidual$GT$13from_residual17h504aa955c7a1e2a3E>:
  1018a0:	48 83 ec 20          	sub    $0x20,%rsp
  1018a4:	48 c7 44 24 08 00 00 	movq   $0x0,0x8(%rsp)
  1018ab:	00 00 
  1018ad:	48 8b 44 24 08       	mov    0x8(%rsp),%rax
  1018b2:	48 8b 54 24 10       	mov    0x10(%rsp),%rdx
  1018b7:	48 83 c4 20          	add    $0x20,%rsp
  1018bb:	c3                   	ret
  1018bc:	0f 1f 40 00          	nopl   0x0(%rax)

00000000001018c0 <_ZN4core3mem7replace17hf2f96f7ec2073f06E>:
  1018c0:	48 83 ec 58          	sub    $0x58,%rsp
  1018c4:	48 89 54 24 18       	mov    %rdx,0x18(%rsp)
  1018c9:	48 89 74 24 10       	mov    %rsi,0x10(%rsp)
  1018ce:	48 89 7c 24 08       	mov    %rdi,0x8(%rsp)
  1018d3:	48 89 7c 24 30       	mov    %rdi,0x30(%rsp)
  1018d8:	48 89 74 24 38       	mov    %rsi,0x38(%rsp)
  1018dd:	48 89 54 24 40       	mov    %rdx,0x40(%rsp)
  1018e2:	e8 29 a2 01 00       	call   11bb10 <_ZN4core3ptr4read17h42a97628736d4e98E>
  1018e7:	48 8b 7c 24 08       	mov    0x8(%rsp),%rdi
  1018ec:	48 8b 74 24 10       	mov    0x10(%rsp),%rsi
  1018f1:	48 89 c1             	mov    %rax,%rcx
  1018f4:	48 89 4c 24 20       	mov    %rcx,0x20(%rsp)
  1018f9:	48 89 d0             	mov    %rdx,%rax
  1018fc:	48 8b 54 24 18       	mov    0x18(%rsp),%rdx
  101901:	48 89 44 24 28       	mov    %rax,0x28(%rsp)
  101906:	48 89 4c 24 48       	mov    %rcx,0x48(%rsp)
  10190b:	48 89 44 24 50       	mov    %rax,0x50(%rsp)
  101910:	e8 5b a2 01 00       	call   11bb70 <_ZN4core3ptr5write17hc0ccd70d0b2cd8a1E>
  101915:	48 8b 44 24 20       	mov    0x20(%rsp),%rax
  10191a:	48 8b 54 24 28       	mov    0x28(%rsp),%rdx
  10191f:	48 83 c4 58          	add    $0x58,%rsp
  101923:	c3                   	ret
  101924:	66 2e 0f 1f 84 00 00 	cs nopw 0x0(%rax,%rax,1)
  10192b:	00 00 00 
  10192e:	66 90                	xchg   %ax,%ax

0000000000101930 <_ZN102_$LT$core..iter..adapters..map..Map$LT$I$C$F$GT$$u20$as$u20$core..iter..traits..iterator..Iterator$GT$4fold17h7d424ff7a67fe8a0E>:
  101930:	48 83 ec 38          	sub    $0x38,%rsp
  101934:	48 89 74 24 08       	mov    %rsi,0x8(%rsp)
  101939:	48 89 74 24 28       	mov    %rsi,0x28(%rsp)
  10193e:	48 8b 07             	mov    (%rdi),%rax
  101941:	48 89 44 24 10       	mov    %rax,0x10(%rsp)
  101946:	48 8b 47 08          	mov    0x8(%rdi),%rax
  10194a:	48 89 44 24 18       	mov    %rax,0x18(%rsp)
  10194f:	48 8b 47 10          	mov    0x10(%rdi),%rax
  101953:	48 89 44 24 20       	mov    %rax,0x20(%rsp)
  101958:	e8 d3 02 00 00       	call   101c30 <_ZN4core4iter8adapters3map8map_fold17h86eff95265cbcef4E>
  10195d:	48 8b 74 24 08       	mov    0x8(%rsp),%rsi
  101962:	48 8d 7c 24 10       	lea    0x10(%rsp),%rdi
  101967:	e8 44 0e 00 00       	call   1027b0 <_ZN4core4iter6traits8iterator8Iterator4fold17h44fea06f8bc1d69cE>
  10196c:	48 83 c4 38          	add    $0x38,%rsp
  101970:	c3                   	ret
  101971:	66 2e 0f 1f 84 00 00 	cs nopw 0x0(%rax,%rax,1)
  101978:	00 00 00 
  10197b:	0f 1f 44 00 00       	nopl   0x0(%rax,%rax,1)

0000000000101980 <_ZN102_$LT$core..iter..adapters..map..Map$LT$I$C$F$GT$$u20$as$u20$core..iter..traits..iterator..Iterator$GT$4fold17hd9a73661d941f3e9E>:
  101980:	48 83 ec 38          	sub    $0x38,%rsp
  101984:	48 89 74 24 08       	mov    %rsi,0x8(%rsp)
  101989:	48 89 74 24 28       	mov    %rsi,0x28(%rsp)
  10198e:	48 8b 07             	mov    (%rdi),%rax
  101991:	48 89 44 24 10       	mov    %rax,0x10(%rsp)
  101996:	48 8b 47 08          	mov    0x8(%rdi),%rax
  10199a:	48 89 44 24 18       	mov    %rax,0x18(%rsp)
  10199f:	48 8b 47 10          	mov    0x10(%rdi),%rax
  1019a3:	48 89 44 24 20       	mov    %rax,0x20(%rsp)
  1019a8:	e8 93 02 00 00       	call   101c40 <_ZN4core4iter8adapters3map8map_fold17ha24a03fa59d6b248E>
  1019ad:	48 8b 74 24 08       	mov    0x8(%rsp),%rsi
  1019b2:	48 8d 7c 24 10       	lea    0x10(%rsp),%rdi
  1019b7:	e8 94 0e 00 00       	call   102850 <_ZN4core4iter6traits8iterator8Iterator4fold17h90500339f73ff656E>
  1019bc:	48 83 c4 38          	add    $0x38,%rsp
  1019c0:	c3                   	ret
  1019c1:	66 2e 0f 1f 84 00 00 	cs nopw 0x0(%rax,%rax,1)
  1019c8:	00 00 00 
  1019cb:	0f 1f 44 00 00       	nopl   0x0(%rax,%rax,1)

00000000001019d0 <_ZN102_$LT$core..iter..adapters..map..Map$LT$I$C$F$GT$$u20$as$u20$core..iter..traits..iterator..Iterator$GT$4next17h89b3b8b1ce42bfa4E>:
  1019d0:	48 83 ec 38          	sub    $0x38,%rsp
  1019d4:	48 89 fe             	mov    %rdi,%rsi
  1019d7:	48 89 34 24          	mov    %rsi,(%rsp)
  1019db:	48 89 74 24 30       	mov    %rsi,0x30(%rsp)
  1019e0:	48 8d 7c 24 10       	lea    0x10(%rsp),%rdi
  1019e5:	48 89 7c 24 08       	mov    %rdi,0x8(%rsp)
  1019ea:	e8 a1 5b 00 00       	call   107590 <_ZN99_$LT$multiboot2..elf_sections..ElfSectionIter$u20$as$u20$core..iter..traits..iterator..Iterator$GT$4next17h2694b915dd07bf19E>
  1019ef:	48 8b 34 24          	mov    (%rsp),%rsi
  1019f3:	48 8b 7c 24 08       	mov    0x8(%rsp),%rdi
  1019f8:	48 83 c6 18          	add    $0x18,%rsi
  1019fc:	e8 7f f1 ff ff       	call   100b80 <_ZN4core6option15Option$LT$T$GT$3map17h00adee4f6ef6b6ddE>
  101a01:	48 83 c4 38          	add    $0x38,%rsp
  101a05:	c3                   	ret
  101a06:	66 2e 0f 1f 84 00 00 	cs nopw 0x0(%rax,%rax,1)
  101a0d:	00 00 00 

0000000000101a10 <_ZN102_$LT$core..iter..adapters..map..Map$LT$I$C$F$GT$$u20$as$u20$core..iter..traits..iterator..Iterator$GT$4next17hfa598f1b544e4783E>:
  101a10:	48 83 ec 38          	sub    $0x38,%rsp
  101a14:	48 89 fe             	mov    %rdi,%rsi
  101a17:	48 89 34 24          	mov    %rsi,(%rsp)
  101a1b:	48 89 74 24 30       	mov    %rsi,0x30(%rsp)
  101a20:	48 8d 7c 24 10       	lea    0x10(%rsp),%rdi
  101a25:	48 89 7c 24 08       	mov    %rdi,0x8(%rsp)
  101a2a:	e8 61 5b 00 00       	call   107590 <_ZN99_$LT$multiboot2..elf_sections..ElfSectionIter$u20$as$u20$core..iter..traits..iterator..Iterator$GT$4next17h2694b915dd07bf19E>
  101a2f:	48 8b 34 24          	mov    (%rsp),%rsi
  101a33:	48 8b 7c 24 08       	mov    0x8(%rsp),%rdi
  101a38:	48 83 c6 18          	add    $0x18,%rsi
  101a3c:	e8 5f f2 ff ff       	call   100ca0 <_ZN4core6option15Option$LT$T$GT$3map17h36b3e29d40509df3E>
  101a41:	48 83 c4 38          	add    $0x38,%rsp
  101a45:	c3                   	ret
  101a46:	66 2e 0f 1f 84 00 00 	cs nopw 0x0(%rax,%rax,1)
  101a4d:	00 00 00 

0000000000101a50 <_ZN4core4iter6traits8iterator8Iterator3max17hf42348a6603c1277E>:
  101a50:	50                   	push   %rax
  101a51:	e8 1a 00 00 00       	call   101a70 <_ZN4core4iter6traits8iterator8Iterator6max_by17hf277cce3edaa6dc8E>
  101a56:	59                   	pop    %rcx
  101a57:	c3                   	ret
  101a58:	0f 1f 84 00 00 00 00 	nopl   0x0(%rax,%rax,1)
  101a5f:	00 

0000000000101a60 <_ZN4core4iter6traits8iterator8Iterator3min17h0f258716ebd5c384E>:
  101a60:	50                   	push   %rax
  101a61:	e8 2a 00 00 00       	call   101a90 <_ZN4core4iter6traits8iterator8Iterator6min_by17h5ec83b9b43d8ea4fE>
  101a66:	59                   	pop    %rcx
  101a67:	c3                   	ret
  101a68:	0f 1f 84 00 00 00 00 	nopl   0x0(%rax,%rax,1)
  101a6f:	00 

0000000000101a70 <_ZN4core4iter6traits8iterator8Iterator6max_by17hf277cce3edaa6dc8E>:
  101a70:	48 83 ec 18          	sub    $0x18,%rsp
  101a74:	48 89 7c 24 08       	mov    %rdi,0x8(%rsp)
  101a79:	e8 32 b3 01 00       	call   11cdb0 <_ZN4core4iter6traits8iterator8Iterator6max_by4fold17h104510189de9e89fE>
  101a7e:	48 8b 7c 24 08       	mov    0x8(%rsp),%rdi
  101a83:	e8 b8 00 00 00       	call   101b40 <_ZN4core4iter6traits8iterator8Iterator6reduce17hd20f7aeb3f505e17E>
  101a88:	48 83 c4 18          	add    $0x18,%rsp
  101a8c:	c3                   	ret
  101a8d:	0f 1f 00             	nopl   (%rax)

0000000000101a90 <_ZN4core4iter6traits8iterator8Iterator6min_by17h5ec83b9b43d8ea4fE>:
  101a90:	48 83 ec 18          	sub    $0x18,%rsp
  101a94:	48 89 7c 24 08       	mov    %rdi,0x8(%rsp)
  101a99:	e8 62 b3 01 00       	call   11ce00 <_ZN4core4iter6traits8iterator8Iterator6min_by4fold17hfeafaca7a6c829aaE>
  101a9e:	48 8b 7c 24 08       	mov    0x8(%rsp),%rdi
  101aa3:	e8 08 00 00 00       	call   101ab0 <_ZN4core4iter6traits8iterator8Iterator6reduce17h90938ea45d5eb630E>
  101aa8:	48 83 c4 18          	add    $0x18,%rsp
  101aac:	c3                   	ret
  101aad:	0f 1f 00             	nopl   (%rax)

0000000000101ab0 <_ZN4core4iter6traits8iterator8Iterator6reduce17h90938ea45d5eb630E>:
  101ab0:	48 83 ec 58          	sub    $0x58,%rsp
  101ab4:	48 89 3c 24          	mov    %rdi,(%rsp)
  101ab8:	e8 53 ff ff ff       	call   101a10 <_ZN102_$LT$core..iter..adapters..map..Map$LT$I$C$F$GT$$u20$as$u20$core..iter..traits..iterator..Iterator$GT$4next17hfa598f1b544e4783E>
  101abd:	48 89 c7             	mov    %rax,%rdi
  101ac0:	48 89 d6             	mov    %rdx,%rsi
  101ac3:	e8 08 a4 00 00       	call   10bed0 <_ZN75_$LT$core..option..Option$LT$T$GT$$u20$as$u20$core..ops..try_trait..Try$GT$6branch17h9b9201f07d9b28d6E>
  101ac8:	48 89 54 24 28       	mov    %rdx,0x28(%rsp)
  101acd:	48 89 44 24 20       	mov    %rax,0x20(%rsp)
  101ad2:	48 83 7c 24 20 00    	cmpq   $0x0,0x20(%rsp)
  101ad8:	75 42                	jne    101b1c <_ZN4core4iter6traits8iterator8Iterator6reduce17h90938ea45d5eb630E+0x6c>
  101ada:	48 8b 04 24          	mov    (%rsp),%rax
  101ade:	48 8b 74 24 28       	mov    0x28(%rsp),%rsi
  101ae3:	48 89 74 24 50       	mov    %rsi,0x50(%rsp)
  101ae8:	48 8b 08             	mov    (%rax),%rcx
  101aeb:	48 89 4c 24 30       	mov    %rcx,0x30(%rsp)
  101af0:	48 8b 48 08          	mov    0x8(%rax),%rcx
  101af4:	48 89 4c 24 38       	mov    %rcx,0x38(%rsp)
  101af9:	48 8b 40 10          	mov    0x10(%rax),%rax
  101afd:	48 89 44 24 40       	mov    %rax,0x40(%rsp)
  101b02:	48 8d 7c 24 30       	lea    0x30(%rsp),%rdi
  101b07:	e8 74 fe ff ff       	call   101980 <_ZN102_$LT$core..iter..adapters..map..Map$LT$I$C$F$GT$$u20$as$u20$core..iter..traits..iterator..Iterator$GT$4fold17hd9a73661d941f3e9E>
  101b0c:	48 89 44 24 18       	mov    %rax,0x18(%rsp)
  101b11:	48 c7 44 24 10 01 00 	movq   $0x1,0x10(%rsp)
  101b18:	00 00 
  101b1a:	eb 0f                	jmp    101b2b <_ZN4core4iter6traits8iterator8Iterator6reduce17h90938ea45d5eb630E+0x7b>
  101b1c:	e8 7f fd ff ff       	call   1018a0 <_ZN84_$LT$core..option..Option$LT$T$GT$$u20$as$u20$core..ops..try_trait..FromResidual$GT$13from_residual17h504aa955c7a1e2a3E>
  101b21:	48 89 54 24 18       	mov    %rdx,0x18(%rsp)
  101b26:	48 89 44 24 10       	mov    %rax,0x10(%rsp)
  101b2b:	48 8b 44 24 10       	mov    0x10(%rsp),%rax
  101b30:	48 8b 54 24 18       	mov    0x18(%rsp),%rdx
  101b35:	48 83 c4 58          	add    $0x58,%rsp
  101b39:	c3                   	ret
  101b3a:	66 0f 1f 44 00 00    	nopw   0x0(%rax,%rax,1)

0000000000101b40 <_ZN4core4iter6traits8iterator8Iterator6reduce17hd20f7aeb3f505e17E>:
  101b40:	48 83 ec 58          	sub    $0x58,%rsp
  101b44:	48 89 3c 24          	mov    %rdi,(%rsp)
  101b48:	e8 83 fe ff ff       	call   1019d0 <_ZN102_$LT$core..iter..adapters..map..Map$LT$I$C$F$GT$$u20$as$u20$core..iter..traits..iterator..Iterator$GT$4next17h89b3b8b1ce42bfa4E>
  101b4d:	48 89 c7             	mov    %rax,%rdi
  101b50:	48 89 d6             	mov    %rdx,%rsi
  101b53:	e8 78 a3 00 00       	call   10bed0 <_ZN75_$LT$core..option..Option$LT$T$GT$$u20$as$u20$core..ops..try_trait..Try$GT$6branch17h9b9201f07d9b28d6E>
  101b58:	48 89 54 24 28       	mov    %rdx,0x28(%rsp)
  101b5d:	48 89 44 24 20       	mov    %rax,0x20(%rsp)
  101b62:	48 83 7c 24 20 00    	cmpq   $0x0,0x20(%rsp)
  101b68:	75 42                	jne    101bac <_ZN4core4iter6traits8iterator8Iterator6reduce17hd20f7aeb3f505e17E+0x6c>
  101b6a:	48 8b 04 24          	mov    (%rsp),%rax
  101b6e:	48 8b 74 24 28       	mov    0x28(%rsp),%rsi
  101b73:	48 89 74 24 50       	mov    %rsi,0x50(%rsp)
  101b78:	48 8b 08             	mov    (%rax),%rcx
  101b7b:	48 89 4c 24 30       	mov    %rcx,0x30(%rsp)
  101b80:	48 8b 48 08          	mov    0x8(%rax),%rcx
  101b84:	48 89 4c 24 38       	mov    %rcx,0x38(%rsp)
  101b89:	48 8b 40 10          	mov    0x10(%rax),%rax
  101b8d:	48 89 44 24 40       	mov    %rax,0x40(%rsp)
  101b92:	48 8d 7c 24 30       	lea    0x30(%rsp),%rdi
  101b97:	e8 94 fd ff ff       	call   101930 <_ZN102_$LT$core..iter..adapters..map..Map$LT$I$C$F$GT$$u20$as$u20$core..iter..traits..iterator..Iterator$GT$4fold17h7d424ff7a67fe8a0E>
  101b9c:	48 89 44 24 18       	mov    %rax,0x18(%rsp)
  101ba1:	48 c7 44 24 10 01 00 	movq   $0x1,0x10(%rsp)
  101ba8:	00 00 
  101baa:	eb 0f                	jmp    101bbb <_ZN4core4iter6traits8iterator8Iterator6reduce17hd20f7aeb3f505e17E+0x7b>
  101bac:	e8 ef fc ff ff       	call   1018a0 <_ZN84_$LT$core..option..Option$LT$T$GT$$u20$as$u20$core..ops..try_trait..FromResidual$GT$13from_residual17h504aa955c7a1e2a3E>
  101bb1:	48 89 54 24 18       	mov    %rdx,0x18(%rsp)
  101bb6:	48 89 44 24 10       	mov    %rax,0x10(%rsp)
  101bbb:	48 8b 44 24 10       	mov    0x10(%rsp),%rax
  101bc0:	48 8b 54 24 18       	mov    0x18(%rsp),%rdx
  101bc5:	48 83 c4 58          	add    $0x58,%rsp
  101bc9:	c3                   	ret
  101bca:	66 0f 1f 44 00 00    	nopw   0x0(%rax,%rax,1)

0000000000101bd0 <_ZN4core4iter8adapters3map16Map$LT$I$C$F$GT$3new17hb7f7e158e9115c1cE>:
  101bd0:	48 83 ec 01          	sub    $0x1,%rsp
  101bd4:	48 89 f8             	mov    %rdi,%rax
  101bd7:	48 8b 0e             	mov    (%rsi),%rcx
  101bda:	48 89 0f             	mov    %rcx,(%rdi)
  101bdd:	48 8b 4e 08          	mov    0x8(%rsi),%rcx
  101be1:	48 89 4f 08          	mov    %rcx,0x8(%rdi)
  101be5:	48 8b 4e 10          	mov    0x10(%rsi),%rcx
  101be9:	48 89 4f 10          	mov    %rcx,0x10(%rdi)
  101bed:	48 83 c4 01          	add    $0x1,%rsp
  101bf1:	c3                   	ret
  101bf2:	66 2e 0f 1f 84 00 00 	cs nopw 0x0(%rax,%rax,1)
  101bf9:	00 00 00 
  101bfc:	0f 1f 40 00          	nopl   0x0(%rax)

0000000000101c00 <_ZN4core4iter8adapters3map16Map$LT$I$C$F$GT$3new17hfdcf1bad78bb7ad5E>:
  101c00:	48 83 ec 01          	sub    $0x1,%rsp
  101c04:	48 89 f8             	mov    %rdi,%rax
  101c07:	48 8b 0e             	mov    (%rsi),%rcx
  101c0a:	48 89 0f             	mov    %rcx,(%rdi)
  101c0d:	48 8b 4e 08          	mov    0x8(%rsi),%rcx
  101c11:	48 89 4f 08          	mov    %rcx,0x8(%rdi)
  101c15:	48 8b 4e 10          	mov    0x10(%rsi),%rcx
  101c19:	48 89 4f 10          	mov    %rcx,0x10(%rdi)
  101c1d:	48 83 c4 01          	add    $0x1,%rsp
  101c21:	c3                   	ret
  101c22:	66 2e 0f 1f 84 00 00 	cs nopw 0x0(%rax,%rax,1)
  101c29:	00 00 00 
  101c2c:	0f 1f 40 00          	nopl   0x0(%rax)

0000000000101c30 <_ZN4core4iter8adapters3map8map_fold17h86eff95265cbcef4E>:
  101c30:	c3                   	ret
  101c31:	66 2e 0f 1f 84 00 00 	cs nopw 0x0(%rax,%rax,1)
  101c38:	00 00 00 
  101c3b:	0f 1f 44 00 00       	nopl   0x0(%rax,%rax,1)

0000000000101c40 <_ZN4core4iter8adapters3map8map_fold17ha24a03fa59d6b248E>:
  101c40:	c3                   	ret
  101c41:	66 2e 0f 1f 84 00 00 	cs nopw 0x0(%rax,%rax,1)
  101c48:	00 00 00 
  101c4b:	0f 1f 44 00 00       	nopl   0x0(%rax,%rax,1)

0000000000101c50 <_ZN4core4iter8adapters3map8map_fold28_$u7b$$u7b$closure$u7d$$u7d$17h09a440a373680fcaE>:
  101c50:	48 83 ec 48          	sub    $0x48,%rsp
  101c54:	48 89 34 24          	mov    %rsi,(%rsp)
  101c58:	48 89 7c 24 08       	mov    %rdi,0x8(%rsp)
  101c5d:	48 89 7c 24 38       	mov    %rdi,0x38(%rsp)
  101c62:	48 89 74 24 40       	mov    %rsi,0x40(%rsp)
  101c67:	48 8b 02             	mov    (%rdx),%rax
  101c6a:	48 89 44 24 20       	mov    %rax,0x20(%rsp)
  101c6f:	48 8b 42 08          	mov    0x8(%rdx),%rax
  101c73:	48 89 44 24 28       	mov    %rax,0x28(%rsp)
  101c78:	48 8b 42 10          	mov    0x10(%rdx),%rax
  101c7c:	48 89 44 24 30       	mov    %rax,0x30(%rsp)
  101c81:	48 8d 74 24 20       	lea    0x20(%rsp),%rsi
  101c86:	e8 e5 2c 00 00       	call   104970 <_ZN9bubble_os9rust_main28_$u7b$$u7b$closure$u7d$$u7d$17hd7f75bf07f60c8c8E>
  101c8b:	48 8b 34 24          	mov    (%rsp),%rsi
  101c8f:	48 8b 7c 24 08       	mov    0x8(%rsp),%rdi
  101c94:	48 89 74 24 10       	mov    %rsi,0x10(%rsp)
  101c99:	48 89 44 24 18       	mov    %rax,0x18(%rsp)
  101c9e:	48 8b 74 24 10       	mov    0x10(%rsp),%rsi
  101ca3:	48 8b 54 24 18       	mov    0x18(%rsp),%rdx
  101ca8:	e8 13 b1 01 00       	call   11cdc0 <_ZN4core4iter6traits8iterator8Iterator6max_by4fold28_$u7b$$u7b$closure$u7d$$u7d$17h699e06e022f17972E>
  101cad:	48 83 c4 48          	add    $0x48,%rsp
  101cb1:	c3                   	ret
  101cb2:	66 2e 0f 1f 84 00 00 	cs nopw 0x0(%rax,%rax,1)
  101cb9:	00 00 00 
  101cbc:	0f 1f 40 00          	nopl   0x0(%rax)

0000000000101cc0 <_ZN4core4iter8adapters3map8map_fold28_$u7b$$u7b$closure$u7d$$u7d$17hb563d2dc982383faE>:
  101cc0:	48 83 ec 48          	sub    $0x48,%rsp
  101cc4:	48 89 34 24          	mov    %rsi,(%rsp)
  101cc8:	48 89 7c 24 08       	mov    %rdi,0x8(%rsp)
  101ccd:	48 89 7c 24 38       	mov    %rdi,0x38(%rsp)
  101cd2:	48 89 74 24 40       	mov    %rsi,0x40(%rsp)
  101cd7:	48 8b 02             	mov    (%rdx),%rax
  101cda:	48 89 44 24 20       	mov    %rax,0x20(%rsp)
  101cdf:	48 8b 42 08          	mov    0x8(%rdx),%rax
  101ce3:	48 89 44 24 28       	mov    %rax,0x28(%rsp)
  101ce8:	48 8b 42 10          	mov    0x10(%rdx),%rax
  101cec:	48 89 44 24 30       	mov    %rax,0x30(%rsp)
  101cf1:	48 8d 74 24 20       	lea    0x20(%rsp),%rsi
  101cf6:	e8 55 2c 00 00       	call   104950 <_ZN9bubble_os9rust_main28_$u7b$$u7b$closure$u7d$$u7d$17hfd891b8f9dfc59b7E>
  101cfb:	48 8b 34 24          	mov    (%rsp),%rsi
  101cff:	48 8b 7c 24 08       	mov    0x8(%rsp),%rdi
  101d04:	48 89 74 24 10       	mov    %rsi,0x10(%rsp)
  101d09:	48 89 44 24 18       	mov    %rax,0x18(%rsp)
  101d0e:	48 8b 74 24 10       	mov    0x10(%rsp),%rsi
  101d13:	48 8b 54 24 18       	mov    0x18(%rsp),%rdx
  101d18:	e8 f3 b0 01 00       	call   11ce10 <_ZN4core4iter6traits8iterator8Iterator6min_by4fold28_$u7b$$u7b$closure$u7d$$u7d$17hc615a015f37b5545E>
  101d1d:	48 83 c4 48          	add    $0x48,%rsp
  101d21:	c3                   	ret
  101d22:	66 2e 0f 1f 84 00 00 	cs nopw 0x0(%rax,%rax,1)
  101d29:	00 00 00 
  101d2c:	0f 1f 40 00          	nopl   0x0(%rax)

0000000000101d30 <_ZN4core3fmt3num50_$LT$impl$u20$core..fmt..Debug$u20$for$u20$u32$GT$3fmt17h5fecac5d68125786E>:
  101d30:	48 83 ec 28          	sub    $0x28,%rsp
  101d34:	48 89 34 24          	mov    %rsi,(%rsp)
  101d38:	48 89 f8             	mov    %rdi,%rax
  101d3b:	48 8b 3c 24          	mov    (%rsp),%rdi
  101d3f:	48 89 44 24 08       	mov    %rax,0x8(%rsp)
  101d44:	48 89 44 24 18       	mov    %rax,0x18(%rsp)
  101d49:	48 89 7c 24 20       	mov    %rdi,0x20(%rsp)
  101d4e:	e8 5d fe 00 00       	call   111bb0 <_ZN4core3fmt9Formatter15debug_lower_hex17hee98fac7258a12b0E>
  101d53:	a8 01                	test   $0x1,%al
  101d55:	75 0f                	jne    101d66 <_ZN4core3fmt3num50_$LT$impl$u20$core..fmt..Debug$u20$for$u20$u32$GT$3fmt17h5fecac5d68125786E+0x36>
  101d57:	48 8b 3c 24          	mov    (%rsp),%rdi
  101d5b:	e8 70 fe 00 00       	call   111bd0 <_ZN4core3fmt9Formatter15debug_upper_hex17hbeda45fb15a6dbf0E>
  101d60:	a8 01                	test   $0x1,%al
  101d62:	75 2e                	jne    101d92 <_ZN4core3fmt3num50_$LT$impl$u20$core..fmt..Debug$u20$for$u20$u32$GT$3fmt17h5fecac5d68125786E+0x62>
  101d64:	eb 16                	jmp    101d7c <_ZN4core3fmt3num50_$LT$impl$u20$core..fmt..Debug$u20$for$u20$u32$GT$3fmt17h5fecac5d68125786E+0x4c>
  101d66:	48 8b 34 24          	mov    (%rsp),%rsi
  101d6a:	48 8b 7c 24 08       	mov    0x8(%rsp),%rdi
  101d6f:	e8 bc 96 00 00       	call   10b430 <_ZN4core3fmt3num53_$LT$impl$u20$core..fmt..LowerHex$u20$for$u20$u32$GT$3fmt17h953f09b46dbc7011E>
  101d74:	24 01                	and    $0x1,%al
  101d76:	88 44 24 17          	mov    %al,0x17(%rsp)
  101d7a:	eb 2a                	jmp    101da6 <_ZN4core3fmt3num50_$LT$impl$u20$core..fmt..Debug$u20$for$u20$u32$GT$3fmt17h5fecac5d68125786E+0x76>
  101d7c:	48 8b 34 24          	mov    (%rsp),%rsi
  101d80:	48 8b 7c 24 08       	mov    0x8(%rsp),%rdi
  101d85:	e8 06 99 01 00       	call   11b690 <_ZN4core3fmt3num3imp52_$LT$impl$u20$core..fmt..Display$u20$for$u20$u32$GT$3fmt17h05c034bb454e4fc4E>
  101d8a:	24 01                	and    $0x1,%al
  101d8c:	88 44 24 17          	mov    %al,0x17(%rsp)
  101d90:	eb 14                	jmp    101da6 <_ZN4core3fmt3num50_$LT$impl$u20$core..fmt..Debug$u20$for$u20$u32$GT$3fmt17h5fecac5d68125786E+0x76>
  101d92:	48 8b 34 24          	mov    (%rsp),%rsi
  101d96:	48 8b 7c 24 08       	mov    0x8(%rsp),%rdi
  101d9b:	e8 c0 96 00 00       	call   10b460 <_ZN4core3fmt3num53_$LT$impl$u20$core..fmt..UpperHex$u20$for$u20$u32$GT$3fmt17hf508d6b540c1e2fdE>
  101da0:	24 01                	and    $0x1,%al
  101da2:	88 44 24 17          	mov    %al,0x17(%rsp)
  101da6:	8a 44 24 17          	mov    0x17(%rsp),%al
  101daa:	24 01                	and    $0x1,%al
  101dac:	0f b6 c0             	movzbl %al,%eax
  101daf:	48 83 c4 28          	add    $0x28,%rsp
  101db3:	c3                   	ret
  101db4:	66 2e 0f 1f 84 00 00 	cs nopw 0x0(%rax,%rax,1)
  101dbb:	00 00 00 
  101dbe:	66 90                	xchg   %ax,%ax

0000000000101dc0 <_ZN4core3ops8function5FnMut8call_mut17h60ec622953cdd994E>:
  101dc0:	48 83 ec 18          	sub    $0x18,%rsp
  101dc4:	48 89 34 24          	mov    %rsi,(%rsp)
  101dc8:	48 89 54 24 08       	mov    %rdx,0x8(%rsp)
  101dcd:	48 89 7c 24 10       	mov    %rdi,0x10(%rsp)
  101dd2:	48 8b 3c 24          	mov    (%rsp),%rdi
  101dd6:	48 8b 74 24 08       	mov    0x8(%rsp),%rsi
  101ddb:	e8 60 a0 01 00       	call   11be40 <_ZN4core3cmp5impls48_$LT$impl$u20$core..cmp..Ord$u20$for$u20$u64$GT$3cmp17h6c84f15dcc0c67b1E>
  101de0:	48 83 c4 18          	add    $0x18,%rsp
  101de4:	c3                   	ret
  101de5:	66 2e 0f 1f 84 00 00 	cs nopw 0x0(%rax,%rax,1)
  101dec:	00 00 00 
  101def:	90                   	nop

0000000000101df0 <_ZN4core3ops8function6FnOnce9call_once17h180ffaf20d24fee3E>:
  101df0:	48 83 ec 18          	sub    $0x18,%rsp
  101df4:	48 89 3c 24          	mov    %rdi,(%rsp)
  101df8:	48 89 74 24 08       	mov    %rsi,0x8(%rsp)
  101dfd:	48 89 e7             	mov    %rsp,%rdi
  101e00:	e8 cb 11 00 00       	call   102fd0 <_ZN9bubble_os3mem6paging11page_mapper6Mapper14translate_page28_$u7b$$u7b$closure$u7d$$u7d$17h4ac9239cd7d61404E>
  101e05:	48 83 c4 18          	add    $0x18,%rsp
  101e09:	c3                   	ret
  101e0a:	66 0f 1f 44 00 00    	nopw   0x0(%rax,%rax,1)

0000000000101e10 <_ZN4core3ptr28drop_in_place$LT$$RF$u32$GT$17h129d2488920f5b77E>:
  101e10:	50                   	push   %rax
  101e11:	48 89 3c 24          	mov    %rdi,(%rsp)
  101e15:	58                   	pop    %rax
  101e16:	c3                   	ret
  101e17:	66 0f 1f 84 00 00 00 	nopw   0x0(%rax,%rax,1)
  101e1e:	00 00 

0000000000101e20 <_ZN4core3ptr52drop_in_place$LT$bubble_os..io..print..EfiWriter$GT$17hb0b0ee94c9236ddcE>:
  101e20:	50                   	push   %rax
  101e21:	48 89 3c 24          	mov    %rdi,(%rsp)
  101e25:	58                   	pop    %rax
  101e26:	c3                   	ret
  101e27:	66 0f 1f 84 00 00 00 	nopw   0x0(%rax,%rax,1)
  101e2e:	00 00 

0000000000101e30 <_ZN9bubble_os3mem6paging15ActivePageTable4with17h6e6a5dd3bfbbca31E>:
  101e30:	48 81 ec b8 00 00 00 	sub    $0xb8,%rsp
  101e37:	4c 89 44 24 28       	mov    %r8,0x28(%rsp)
  101e3c:	48 89 4c 24 20       	mov    %rcx,0x20(%rsp)
  101e41:	48 89 54 24 08       	mov    %rdx,0x8(%rsp)
  101e46:	48 89 74 24 48       	mov    %rsi,0x48(%rsp)
  101e4b:	48 89 7c 24 50       	mov    %rdi,0x50(%rsp)
  101e50:	48 89 bc 24 80 00 00 	mov    %rdi,0x80(%rsp)
  101e57:	00 
  101e58:	48 89 b4 24 88 00 00 	mov    %rsi,0x88(%rsp)
  101e5f:	00 
  101e60:	48 89 94 24 90 00 00 	mov    %rdx,0x90(%rsp)
  101e67:	00 
  101e68:	48 89 8c 24 98 00 00 	mov    %rcx,0x98(%rsp)
  101e6f:	00 
  101e70:	4c 89 84 24 a0 00 00 	mov    %r8,0xa0(%rsp)
  101e77:	00 
  101e78:	48 8d 7c 24 60       	lea    0x60(%rsp),%rdi
  101e7d:	e8 ce b1 01 00       	call   11d050 <_ZN6x86_649registers7control6x86_6449_$LT$impl$u20$x86_64..registers..control..Cr3$GT$4read17h3c1c6f3b554fd551E>
  101e82:	48 8b 44 24 60       	mov    0x60(%rsp),%rax
  101e87:	48 89 44 24 58       	mov    %rax,0x58(%rsp)
  101e8c:	48 8b 7c 24 58       	mov    0x58(%rsp),%rdi
  101e91:	e8 aa 2f 00 00       	call   104e40 <_ZN6x86_6410structures6paging5frame18PhysFrame$LT$S$GT$13start_address17h6b64083e13273c99E>
  101e96:	48 89 c7             	mov    %rax,%rdi
  101e99:	e8 f2 b3 01 00       	call   11d290 <_ZN6x86_644addr8PhysAddr6as_u6417h8036a30a3ccf3c15E>
  101e9e:	48 89 c7             	mov    %rax,%rdi
  101ea1:	48 89 bc 24 a8 00 00 	mov    %rdi,0xa8(%rsp)
  101ea8:	00 
  101ea9:	e8 22 b7 01 00       	call   11d5d0 <_ZN9bubble_os3mem9PageFrame12from_address17h0840620e289e3f11E>
  101eae:	48 89 44 24 70       	mov    %rax,0x70(%rsp)
  101eb3:	48 8d 7c 24 70       	lea    0x70(%rsp),%rdi
  101eb8:	e8 c3 b7 01 00       	call   11d680 <_ZN9bubble_os3mem9PageFrame5clone17h72c77acf7f614feeE>
  101ebd:	48 8b 7c 24 48       	mov    0x48(%rsp),%rdi
  101ec2:	48 8b 54 24 50       	mov    0x50(%rsp),%rdx
  101ec7:	48 89 c6             	mov    %rax,%rsi
  101eca:	e8 41 16 00 00       	call   103510 <_ZN9bubble_os3mem6paging9temp_page8TempPage15map_table_frame17hc514729b100d3939E>
  101ecf:	48 8b 7c 24 50       	mov    0x50(%rsp),%rdi
  101ed4:	48 89 44 24 30       	mov    %rax,0x30(%rsp)
  101ed9:	48 89 84 24 b0 00 00 	mov    %rax,0xb0(%rsp)
  101ee0:	00 
  101ee1:	e8 2a ab 01 00       	call   11ca10 <_ZN86_$LT$bubble_os..mem..paging..ActivePageTable$u20$as$u20$core..ops..deref..DerefMut$GT$9deref_mut17h2a0249dc8e4586e5E>
  101ee6:	48 89 c7             	mov    %rax,%rdi
  101ee9:	e8 32 9d 01 00       	call   11bc20 <_ZN9bubble_os3mem6paging11page_mapper6Mapper10get_p4_mut17hbc15213e83040e76E>
  101eee:	48 89 c7             	mov    %rax,%rdi
  101ef1:	be ff 01 00 00       	mov    $0x1ff,%esi
  101ef6:	48 8d 15 bb 07 02 00 	lea    0x207bb(%rip),%rdx        # 1226b8 <str.0+0x308>
  101efd:	e8 9e 18 00 00       	call   1037a0 <_ZN114_$LT$bubble_os..mem..paging..page_table..PageTable$LT$L$GT$$u20$as$u20$core..ops..index..IndexMut$LT$usize$GT$$GT$9index_mut17h635392c3735674fbE>
  101f02:	48 8b 7c 24 08       	mov    0x8(%rsp),%rdi
  101f07:	48 89 44 24 10       	mov    %rax,0x10(%rsp)
  101f0c:	e8 6f b7 01 00       	call   11d680 <_ZN9bubble_os3mem9PageFrame5clone17h72c77acf7f614feeE>
  101f11:	48 89 44 24 18       	mov    %rax,0x18(%rsp)
  101f16:	bf 01 00 00 00       	mov    $0x1,%edi
  101f1b:	be 02 00 00 00       	mov    $0x2,%esi
  101f20:	e8 3b a9 01 00       	call   11c860 <_ZN9bubble_os3mem6paging5entry1_93_$LT$impl$u20$core..ops..bit..BitOr$u20$for$u20$bubble_os..mem..paging..entry..EntryFlags$GT$5bitor17h652ab14438ba6e14E>
  101f25:	48 8b 7c 24 10       	mov    0x10(%rsp),%rdi
  101f2a:	48 8b 74 24 18       	mov    0x18(%rsp),%rsi
  101f2f:	48 89 c2             	mov    %rax,%rdx
  101f32:	e8 09 a0 01 00       	call   11bf40 <_ZN9bubble_os3mem6paging5entry14PageTableEntry3set17hafd52c8fd7765761E>
  101f37:	e8 e4 09 00 00       	call   102920 <_ZN6x86_6412instructions3tlb9flush_all17ha09ddb74cec8b38aE>
  101f3c:	48 8b 7c 24 50       	mov    0x50(%rsp),%rdi
  101f41:	e8 ca aa 01 00       	call   11ca10 <_ZN86_$LT$bubble_os..mem..paging..ActivePageTable$u20$as$u20$core..ops..deref..DerefMut$GT$9deref_mut17h2a0249dc8e4586e5E>
  101f46:	48 8b 7c 24 20       	mov    0x20(%rsp),%rdi
  101f4b:	48 8b 74 24 28       	mov    0x28(%rsp),%rsi
  101f50:	48 89 44 24 78       	mov    %rax,0x78(%rsp)
  101f55:	48 8b 54 24 78       	mov    0x78(%rsp),%rdx
  101f5a:	e8 71 01 00 00       	call   1020d0 <_ZN9bubble_os3mem6paging12remap_kernel28_$u7b$$u7b$closure$u7d$$u7d$17h467dbc5cbe7d81baE>
  101f5f:	48 8b 7c 24 30       	mov    0x30(%rsp),%rdi
  101f64:	be ff 01 00 00       	mov    $0x1ff,%esi
  101f69:	48 8d 15 60 07 02 00 	lea    0x20760(%rip),%rdx        # 1226d0 <str.0+0x320>
  101f70:	e8 8b 18 00 00       	call   103800 <_ZN114_$LT$bubble_os..mem..paging..page_table..PageTable$LT$L$GT$$u20$as$u20$core..ops..index..IndexMut$LT$usize$GT$$GT$9index_mut17hd51b33f0b932f488E>
  101f75:	48 89 44 24 38       	mov    %rax,0x38(%rsp)
  101f7a:	48 8b 44 24 70       	mov    0x70(%rsp),%rax
  101f7f:	48 89 44 24 40       	mov    %rax,0x40(%rsp)
  101f84:	bf 01 00 00 00       	mov    $0x1,%edi
  101f89:	be 02 00 00 00       	mov    $0x2,%esi
  101f8e:	e8 cd a8 01 00       	call   11c860 <_ZN9bubble_os3mem6paging5entry1_93_$LT$impl$u20$core..ops..bit..BitOr$u20$for$u20$bubble_os..mem..paging..entry..EntryFlags$GT$5bitor17h652ab14438ba6e14E>
  101f93:	48 8b 7c 24 38       	mov    0x38(%rsp),%rdi
  101f98:	48 8b 74 24 40       	mov    0x40(%rsp),%rsi
  101f9d:	48 89 c2             	mov    %rax,%rdx
  101fa0:	e8 9b 9f 01 00       	call   11bf40 <_ZN9bubble_os3mem6paging5entry14PageTableEntry3set17hafd52c8fd7765761E>
  101fa5:	e8 76 09 00 00       	call   102920 <_ZN6x86_6412instructions3tlb9flush_all17ha09ddb74cec8b38aE>
  101faa:	48 8b 7c 24 48       	mov    0x48(%rsp),%rdi
  101faf:	48 8b 74 24 50       	mov    0x50(%rsp),%rsi
  101fb4:	e8 17 15 00 00       	call   1034d0 <_ZN9bubble_os3mem6paging9temp_page8TempPage5unmap17h72a4b9fb34ef225cE>
  101fb9:	48 81 c4 b8 00 00 00 	add    $0xb8,%rsp
  101fc0:	c3                   	ret
  101fc1:	66 2e 0f 1f 84 00 00 	cs nopw 0x0(%rax,%rax,1)
  101fc8:	00 00 00 
  101fcb:	0f 1f 44 00 00       	nopl   0x0(%rax,%rax,1)

0000000000101fd0 <_ZN9bubble_os3mem6paging12remap_kernel17hbe7184b803560315E>:
  101fd0:	48 81 ec c8 00 00 00 	sub    $0xc8,%rsp
  101fd7:	48 89 74 24 08       	mov    %rsi,0x8(%rsp)
  101fdc:	48 89 fa             	mov    %rdi,%rdx
  101fdf:	48 89 54 24 10       	mov    %rdx,0x10(%rsp)
  101fe4:	48 89 94 24 b0 00 00 	mov    %rdx,0xb0(%rsp)
  101feb:	00 
  101fec:	48 89 b4 24 b8 00 00 	mov    %rsi,0xb8(%rsp)
  101ff3:	00 
  101ff4:	b8 bc da bc fa       	mov    $0xfabcdabc,%eax
  101ff9:	48 89 44 24 18       	mov    %rax,0x18(%rsp)
  101ffe:	48 8b 74 24 18       	mov    0x18(%rsp),%rsi
  102003:	48 8d 7c 24 58       	lea    0x58(%rsp),%rdi
  102008:	e8 c3 97 01 00       	call   11b7d0 <_ZN9bubble_os3mem6paging9temp_page8TempPage3new17he045b8f7ba5137dbE>
  10200d:	48 8d 7c 24 20       	lea    0x20(%rsp),%rdi
  102012:	48 8d 74 24 58       	lea    0x58(%rsp),%rsi
  102017:	48 8d 15 ca 06 02 00 	lea    0x206ca(%rip),%rdx        # 1226e8 <str.0+0x338>
  10201e:	e8 7d f2 ff ff       	call   1012a0 <_ZN4core6option15Option$LT$T$GT$6unwrap17hec97db5936be925fE>
  102023:	e8 c8 a9 01 00       	call   11c9f0 <_ZN9bubble_os3mem6paging15ActivePageTable3new17hde0e0b675acbbfb8E>
  102028:	48 8b 7c 24 10       	mov    0x10(%rsp),%rdi
  10202d:	48 89 84 24 90 00 00 	mov    %rax,0x90(%rsp)
  102034:	00 
  102035:	e8 76 09 00 00       	call   1029b0 <_ZN124_$LT$bubble_os..mem..simple_page_frame_allocator..SimplePageFrameAllocator$u20$as$u20$bubble_os..mem..PageFrameAllocator$GT$6falloc17h199366ededbc5462E>
  10203a:	48 89 c7             	mov    %rax,%rdi
  10203d:	48 89 d6             	mov    %rdx,%rsi
  102040:	48 8d 15 bb c1 01 00 	lea    0x1c1bb(%rip),%rdx        # 11e202 <str.1+0x192>
  102047:	b9 16 00 00 00       	mov    $0x16,%ecx
  10204c:	4c 8d 05 ad 06 02 00 	lea    0x206ad(%rip),%r8        # 122700 <str.0+0x350>
  102053:	e8 38 f0 ff ff       	call   101090 <_ZN4core6option15Option$LT$T$GT$6expect17he90c8d483c5c796dE>
  102058:	48 89 c7             	mov    %rax,%rdi
  10205b:	48 89 bc 24 c0 00 00 	mov    %rdi,0xc0(%rsp)
  102062:	00 
  102063:	48 8d b4 24 90 00 00 	lea    0x90(%rsp),%rsi
  10206a:	00 
  10206b:	48 8d 54 24 20       	lea    0x20(%rsp),%rdx
  102070:	e8 ab a9 01 00       	call   11ca20 <_ZN9bubble_os3mem6paging17InactivePageTable3new17ha45603ea1c45c94cE>
  102075:	48 8b 74 24 08       	mov    0x8(%rsp),%rsi
  10207a:	48 8b 7c 24 10       	mov    0x10(%rsp),%rdi
  10207f:	48 89 84 24 98 00 00 	mov    %rax,0x98(%rsp)
  102086:	00 
  102087:	48 89 b4 24 a0 00 00 	mov    %rsi,0xa0(%rsp)
  10208e:	00 
  10208f:	48 89 bc 24 a8 00 00 	mov    %rdi,0xa8(%rsp)
  102096:	00 
  102097:	48 8b 8c 24 a0 00 00 	mov    0xa0(%rsp),%rcx
  10209e:	00 
  10209f:	4c 8b 84 24 a8 00 00 	mov    0xa8(%rsp),%r8
  1020a6:	00 
  1020a7:	48 8d bc 24 90 00 00 	lea    0x90(%rsp),%rdi
  1020ae:	00 
  1020af:	48 8d 74 24 20       	lea    0x20(%rsp),%rsi
  1020b4:	48 8d 94 24 98 00 00 	lea    0x98(%rsp),%rdx
  1020bb:	00 
  1020bc:	e8 6f fd ff ff       	call   101e30 <_ZN9bubble_os3mem6paging15ActivePageTable4with17h6e6a5dd3bfbbca31E>
  1020c1:	48 81 c4 c8 00 00 00 	add    $0xc8,%rsp
  1020c8:	c3                   	ret
  1020c9:	0f 1f 80 00 00 00 00 	nopl   0x0(%rax)

00000000001020d0 <_ZN9bubble_os3mem6paging12remap_kernel28_$u7b$$u7b$closure$u7d$$u7d$17h467dbc5cbe7d81baE>:
  1020d0:	48 81 ec 58 04 00 00 	sub    $0x458,%rsp
  1020d7:	48 89 54 24 58       	mov    %rdx,0x58(%rsp)
  1020dc:	48 c7 44 24 70 02 00 	movq   $0x2,0x70(%rsp)
  1020e3:	00 00 
  1020e5:	48 89 7c 24 78       	mov    %rdi,0x78(%rsp)
  1020ea:	48 89 b4 24 80 00 00 	mov    %rsi,0x80(%rsp)
  1020f1:	00 
  1020f2:	48 89 94 24 30 03 00 	mov    %rdx,0x330(%rsp)
  1020f9:	00 
  1020fa:	48 8b 7c 24 78       	mov    0x78(%rsp),%rdi
  1020ff:	e8 bc 45 00 00       	call   1066c0 <_ZN10multiboot215BootInformation13start_address17h77ce05a6bf16edc1E>
  102104:	48 89 44 24 60       	mov    %rax,0x60(%rsp)
  102109:	48 89 84 24 38 03 00 	mov    %rax,0x338(%rsp)
  102110:	00 
  102111:	48 8b 7c 24 78       	mov    0x78(%rsp),%rdi
  102116:	e8 d5 45 00 00       	call   1066f0 <_ZN10multiboot215BootInformation10total_size17hc4fb3965a3435a49E>
  10211b:	48 89 c1             	mov    %rax,%rcx
  10211e:	48 8b 44 24 60       	mov    0x60(%rsp),%rax
  102123:	48 01 c8             	add    %rcx,%rax
  102126:	48 89 44 24 68       	mov    %rax,0x68(%rsp)
  10212b:	0f 92 c0             	setb   %al
  10212e:	a8 01                	test   $0x1,%al
  102130:	75 70                	jne    1021a2 <_ZN9bubble_os3mem6paging12remap_kernel28_$u7b$$u7b$closure$u7d$$u7d$17h467dbc5cbe7d81baE+0xd2>
  102132:	48 8b 44 24 68       	mov    0x68(%rsp),%rax
  102137:	48 8b 7c 24 60       	mov    0x60(%rsp),%rdi
  10213c:	48 89 84 24 40 03 00 	mov    %rax,0x340(%rsp)
  102143:	00 
  102144:	e8 87 b4 01 00       	call   11d5d0 <_ZN9bubble_os3mem9PageFrame12from_address17h0840620e289e3f11E>
  102149:	48 8b 7c 24 68       	mov    0x68(%rsp),%rdi
  10214e:	48 89 44 24 50       	mov    %rax,0x50(%rsp)
  102153:	48 89 84 24 48 03 00 	mov    %rax,0x348(%rsp)
  10215a:	00 
  10215b:	e8 70 b4 01 00       	call   11d5d0 <_ZN9bubble_os3mem9PageFrame12from_address17h0840620e289e3f11E>
  102160:	48 8b 7c 24 50       	mov    0x50(%rsp),%rdi
  102165:	48 89 c6             	mov    %rax,%rsi
  102168:	48 89 b4 24 50 03 00 	mov    %rsi,0x350(%rsp)
  10216f:	00 
  102170:	e8 2b b5 01 00       	call   11d6a0 <_ZN9bubble_os3mem9PageFrame5range17ha249a43f9133dcd5E>
  102175:	48 89 c7             	mov    %rax,%rdi
  102178:	48 89 d6             	mov    %rdx,%rsi
  10217b:	48 89 bc 24 58 03 00 	mov    %rdi,0x358(%rsp)
  102182:	00 
  102183:	48 89 b4 24 60 03 00 	mov    %rsi,0x360(%rsp)
  10218a:	00 
  10218b:	e8 20 96 01 00       	call   11b7b0 <_ZN63_$LT$I$u20$as$u20$core..iter..traits..collect..IntoIterator$GT$9into_iter17hd161328e48f7d87dE>
  102190:	48 89 84 24 88 00 00 	mov    %rax,0x88(%rsp)
  102197:	00 
  102198:	48 89 94 24 90 00 00 	mov    %rdx,0x90(%rsp)
  10219f:	00 
  1021a0:	eb 1a                	jmp    1021bc <_ZN9bubble_os3mem6paging12remap_kernel28_$u7b$$u7b$closure$u7d$$u7d$17h467dbc5cbe7d81baE+0xec>
  1021a2:	48 8d 3d 77 c0 01 00 	lea    0x1c077(%rip),%rdi        # 11e220 <str.0>
  1021a9:	48 8d 15 68 05 02 00 	lea    0x20568(%rip),%rdx        # 122718 <str.0+0x368>
  1021b0:	be 1c 00 00 00       	mov    $0x1c,%esi
  1021b5:	e8 96 4a 01 00       	call   116c50 <_ZN4core9panicking5panic17h13a0ad3e62cace8fE>
  1021ba:	0f 0b                	ud2
  1021bc:	48 8d bc 24 88 00 00 	lea    0x88(%rsp),%rdi
  1021c3:	00 
  1021c4:	e8 07 b5 01 00       	call   11d6d0 <_ZN88_$LT$bubble_os..mem..PageFrameIter$u20$as$u20$core..iter..traits..iterator..Iterator$GT$4next17h45036fd512ec1832E>
  1021c9:	48 89 94 24 a0 00 00 	mov    %rdx,0xa0(%rsp)
  1021d0:	00 
  1021d1:	48 89 84 24 98 00 00 	mov    %rax,0x98(%rsp)
  1021d8:	00 
  1021d9:	48 83 bc 24 98 00 00 	cmpq   $0x0,0x98(%rsp)
  1021e0:	00 00 
  1021e2:	0f 85 8a 00 00 00    	jne    102272 <_ZN9bubble_os3mem6paging12remap_kernel28_$u7b$$u7b$closure$u7d$$u7d$17h467dbc5cbe7d81baE+0x1a2>
  1021e8:	48 8b 74 24 78       	mov    0x78(%rsp),%rsi
  1021ed:	48 8d bc 24 c0 00 00 	lea    0xc0(%rsp),%rdi
  1021f4:	00 
  1021f5:	e8 06 45 00 00       	call   106700 <_ZN10multiboot215BootInformation12elf_sections17h14a7aa3604a2b4d5E>
  1021fa:	48 8d bc 24 a8 00 00 	lea    0xa8(%rsp),%rdi
  102201:	00 
  102202:	48 8d b4 24 c0 00 00 	lea    0xc0(%rsp),%rsi
  102209:	00 
  10220a:	48 8d 15 1f 05 02 00 	lea    0x2051f(%rip),%rdx        # 122730 <str.0+0x380>
  102211:	e8 da ee ff ff       	call   1010f0 <_ZN4core6option15Option$LT$T$GT$6unwrap17h2a1cc5b70e9c206bE>
  102216:	48 8d bc 24 f8 00 00 	lea    0xf8(%rsp),%rdi
  10221d:	00 
  10221e:	48 8d b4 24 a8 00 00 	lea    0xa8(%rsp),%rsi
  102225:	00 
  102226:	e8 b5 27 00 00       	call   1049e0 <_ZN79_$LT$multiboot2..elf_sections..ElfSectionIter$u20$as$u20$core..clone..Clone$GT$5clone17hf0ce36e040368740E>
  10222b:	48 8d bc 24 e0 00 00 	lea    0xe0(%rsp),%rdi
  102232:	00 
  102233:	48 8d b4 24 f8 00 00 	lea    0xf8(%rsp),%rsi
  10223a:	00 
  10223b:	e8 b0 06 00 00       	call   1028f0 <_ZN63_$LT$I$u20$as$u20$core..iter..traits..collect..IntoIterator$GT$9into_iter17h876ae0395cbe60baE>
  102240:	48 8b 84 24 e0 00 00 	mov    0xe0(%rsp),%rax
  102247:	00 
  102248:	48 89 84 24 10 01 00 	mov    %rax,0x110(%rsp)
  10224f:	00 
  102250:	48 8b 84 24 e8 00 00 	mov    0xe8(%rsp),%rax
  102257:	00 
  102258:	48 89 84 24 18 01 00 	mov    %rax,0x118(%rsp)
  10225f:	00 
  102260:	48 8b 84 24 f0 00 00 	mov    0xf0(%rsp),%rax
  102267:	00 
  102268:	48 89 84 24 20 01 00 	mov    %rax,0x120(%rsp)
  10226f:	00 
  102270:	eb 2c                	jmp    10229e <_ZN9bubble_os3mem6paging12remap_kernel28_$u7b$$u7b$closure$u7d$$u7d$17h467dbc5cbe7d81baE+0x1ce>
  102272:	48 8b 7c 24 58       	mov    0x58(%rsp),%rdi
  102277:	48 8b b4 24 a0 00 00 	mov    0xa0(%rsp),%rsi
  10227e:	00 
  10227f:	48 89 b4 24 90 03 00 	mov    %rsi,0x390(%rsp)
  102286:	00 
  102287:	48 8b 8c 24 80 00 00 	mov    0x80(%rsp),%rcx
  10228e:	00 
  10228f:	ba 02 00 00 00       	mov    $0x2,%edx
  102294:	e8 b7 0a 00 00       	call   102d50 <_ZN9bubble_os3mem6paging11page_mapper6Mapper12map_identity17h75078da2441b3c55E>
  102299:	e9 1e ff ff ff       	jmp    1021bc <_ZN9bubble_os3mem6paging12remap_kernel28_$u7b$$u7b$closure$u7d$$u7d$17h467dbc5cbe7d81baE+0xec>
  10229e:	48 8d bc 24 28 01 00 	lea    0x128(%rsp),%rdi
  1022a5:	00 
  1022a6:	48 8d b4 24 10 01 00 	lea    0x110(%rsp),%rsi
  1022ad:	00 
  1022ae:	e8 dd 52 00 00       	call   107590 <_ZN99_$LT$multiboot2..elf_sections..ElfSectionIter$u20$as$u20$core..iter..traits..iterator..Iterator$GT$4next17h2694b915dd07bf19E>
  1022b3:	48 83 bc 24 28 01 00 	cmpq   $0x0,0x128(%rsp)
  1022ba:	00 00 
  1022bc:	75 08                	jne    1022c6 <_ZN9bubble_os3mem6paging12remap_kernel28_$u7b$$u7b$closure$u7d$$u7d$17h467dbc5cbe7d81baE+0x1f6>
  1022be:	48 81 c4 58 04 00 00 	add    $0x458,%rsp
  1022c5:	c3                   	ret
  1022c6:	48 8b 84 24 30 01 00 	mov    0x130(%rsp),%rax
  1022cd:	00 
  1022ce:	48 89 84 24 48 01 00 	mov    %rax,0x148(%rsp)
  1022d5:	00 
  1022d6:	48 8b 84 24 38 01 00 	mov    0x138(%rsp),%rax
  1022dd:	00 
  1022de:	48 89 84 24 50 01 00 	mov    %rax,0x150(%rsp)
  1022e5:	00 
  1022e6:	48 8b 84 24 40 01 00 	mov    0x140(%rsp),%rax
  1022ed:	00 
  1022ee:	48 89 84 24 58 01 00 	mov    %rax,0x158(%rsp)
  1022f5:	00 
  1022f6:	48 8d bc 24 48 01 00 	lea    0x148(%rsp),%rdi
  1022fd:	00 
  1022fe:	e8 9d 56 00 00       	call   1079a0 <_ZN10multiboot212elf_sections10ElfSection12is_allocated17hd44d063e2855db91E>
  102303:	a8 01                	test   $0x1,%al
  102305:	75 02                	jne    102309 <_ZN9bubble_os3mem6paging12remap_kernel28_$u7b$$u7b$closure$u7d$$u7d$17h467dbc5cbe7d81baE+0x239>
  102307:	eb 95                	jmp    10229e <_ZN9bubble_os3mem6paging12remap_kernel28_$u7b$$u7b$closure$u7d$$u7d$17h467dbc5cbe7d81baE+0x1ce>
  102309:	48 8d bc 24 48 01 00 	lea    0x148(%rsp),%rdi
  102310:	00 
  102311:	e8 ba 55 00 00       	call   1078d0 <_ZN10multiboot212elf_sections10ElfSection13start_address17hb92cfbe115f55ecbE>
  102316:	48 89 44 24 40       	mov    %rax,0x40(%rsp)
  10231b:	48 8b 05 66 ff 01 00 	mov    0x1ff66(%rip),%rax        # 122288 <_ZN9bubble_os3mem9PAGE_SIZE17h9670f3bdcab7d609E>
  102322:	48 89 44 24 48       	mov    %rax,0x48(%rsp)
  102327:	48 83 f8 00          	cmp    $0x0,%rax
  10232b:	0f 94 c0             	sete   %al
  10232e:	a8 01                	test   $0x1,%al
  102330:	75 2a                	jne    10235c <_ZN9bubble_os3mem6paging12remap_kernel28_$u7b$$u7b$closure$u7d$$u7d$17h467dbc5cbe7d81baE+0x28c>
  102332:	48 8b 4c 24 48       	mov    0x48(%rsp),%rcx
  102337:	48 8b 44 24 40       	mov    0x40(%rsp),%rax
  10233c:	31 d2                	xor    %edx,%edx
  10233e:	48 f7 f1             	div    %rcx
  102341:	48 83 fa 00          	cmp    $0x0,%rdx
  102345:	0f 94 c0             	sete   %al
  102348:	24 01                	and    $0x1,%al
  10234a:	88 84 24 6f 03 00 00 	mov    %al,0x36f(%rsp)
  102351:	48 83 fa 00          	cmp    $0x0,%rdx
  102355:	74 1f                	je     102376 <_ZN9bubble_os3mem6paging12remap_kernel28_$u7b$$u7b$closure$u7d$$u7d$17h467dbc5cbe7d81baE+0x2a6>
  102357:	e9 d7 03 00 00       	jmp    102733 <_ZN9bubble_os3mem6paging12remap_kernel28_$u7b$$u7b$closure$u7d$$u7d$17h467dbc5cbe7d81baE+0x663>
  10235c:	48 8d 3d dd be 01 00 	lea    0x1bedd(%rip),%rdi        # 11e240 <str.1>
  102363:	48 8d 15 de 03 02 00 	lea    0x203de(%rip),%rdx        # 122748 <str.0+0x398>
  10236a:	be 39 00 00 00       	mov    $0x39,%esi
  10236f:	e8 dc 48 01 00       	call   116c50 <_ZN4core9panicking5panic17h13a0ad3e62cace8fE>
  102374:	0f 0b                	ud2
  102376:	48 8d bc 24 48 01 00 	lea    0x148(%rsp),%rdi
  10237d:	00 
  10237e:	48 89 7c 24 18       	mov    %rdi,0x18(%rsp)
  102383:	e8 48 55 00 00       	call   1078d0 <_ZN10multiboot212elf_sections10ElfSection13start_address17hb92cfbe115f55ecbE>
  102388:	48 8b 7c 24 18       	mov    0x18(%rsp),%rdi
  10238d:	48 89 84 24 e8 01 00 	mov    %rax,0x1e8(%rsp)
  102394:	00 
  102395:	48 8d 8c 24 e8 01 00 	lea    0x1e8(%rsp),%rcx
  10239c:	00 
  10239d:	48 89 8c 24 10 04 00 	mov    %rcx,0x410(%rsp)
  1023a4:	00 
  1023a5:	48 89 8c 24 28 04 00 	mov    %rcx,0x428(%rsp)
  1023ac:	00 
  1023ad:	48 8d 05 dc 90 00 00 	lea    0x90dc(%rip),%rax        # 10b490 <_ZN4core3fmt3num53_$LT$impl$u20$core..fmt..LowerHex$u20$for$u20$u64$GT$3fmt17h1fdedc591f0da6e5E>
  1023b4:	48 89 44 24 30       	mov    %rax,0x30(%rsp)
  1023b9:	48 89 84 24 30 04 00 	mov    %rax,0x430(%rsp)
  1023c0:	00 
  1023c1:	48 89 8c 24 18 04 00 	mov    %rcx,0x418(%rsp)
  1023c8:	00 
  1023c9:	48 89 84 24 20 04 00 	mov    %rax,0x420(%rsp)
  1023d0:	00 
  1023d1:	48 8b 84 24 18 04 00 	mov    0x418(%rsp),%rax
  1023d8:	00 
  1023d9:	48 89 44 24 20       	mov    %rax,0x20(%rsp)
  1023de:	48 8b 84 24 20 04 00 	mov    0x420(%rsp),%rax
  1023e5:	00 
  1023e6:	48 89 44 24 28       	mov    %rax,0x28(%rsp)
  1023eb:	e8 70 55 00 00       	call   107960 <_ZN10multiboot212elf_sections10ElfSection4size17h82f30de6ced325f3E>
  1023f0:	48 8b 74 24 20       	mov    0x20(%rsp),%rsi
  1023f5:	48 8b 54 24 28       	mov    0x28(%rsp),%rdx
  1023fa:	48 89 c1             	mov    %rax,%rcx
  1023fd:	48 8b 44 24 30       	mov    0x30(%rsp),%rax
  102402:	48 89 8c 24 f0 01 00 	mov    %rcx,0x1f0(%rsp)
  102409:	00 
  10240a:	48 8d 8c 24 f0 01 00 	lea    0x1f0(%rsp),%rcx
  102411:	00 
  102412:	48 89 8c 24 08 04 00 	mov    %rcx,0x408(%rsp)
  102419:	00 
  10241a:	48 89 8c 24 48 04 00 	mov    %rcx,0x448(%rsp)
  102421:	00 
  102422:	48 89 84 24 50 04 00 	mov    %rax,0x450(%rsp)
  102429:	00 
  10242a:	48 89 8c 24 38 04 00 	mov    %rcx,0x438(%rsp)
  102431:	00 
  102432:	48 89 84 24 40 04 00 	mov    %rax,0x440(%rsp)
  102439:	00 
  10243a:	48 8b 8c 24 38 04 00 	mov    0x438(%rsp),%rcx
  102441:	00 
  102442:	48 8b 84 24 40 04 00 	mov    0x440(%rsp),%rax
  102449:	00 
  10244a:	48 89 b4 24 c8 01 00 	mov    %rsi,0x1c8(%rsp)
  102451:	00 
  102452:	48 89 94 24 d0 01 00 	mov    %rdx,0x1d0(%rsp)
  102459:	00 
  10245a:	48 89 8c 24 d8 01 00 	mov    %rcx,0x1d8(%rsp)
  102461:	00 
  102462:	48 89 84 24 e0 01 00 	mov    %rax,0x1e0(%rsp)
  102469:	00 
  10246a:	c6 84 24 a7 02 00 00 	movb   $0x3,0x2a7(%rsp)
  102471:	03 
  102472:	48 c7 84 24 a8 02 00 	movq   $0x2,0x2a8(%rsp)
  102479:	00 02 00 00 00 
  10247e:	48 c7 84 24 b8 02 00 	movq   $0x2,0x2b8(%rsp)
  102485:	00 02 00 00 00 
  10248a:	40 8a bc 24 a7 02 00 	mov    0x2a7(%rsp),%dil
  102491:	00 
  102492:	48 8b b4 24 a8 02 00 	mov    0x2a8(%rsp),%rsi
  102499:	00 
  10249a:	48 8b 94 24 b0 02 00 	mov    0x2b0(%rsp),%rdx
  1024a1:	00 
  1024a2:	48 8b 8c 24 b8 02 00 	mov    0x2b8(%rsp),%rcx
  1024a9:	00 
  1024aa:	48 8b 84 24 c0 02 00 	mov    0x2c0(%rsp),%rax
  1024b1:	00 
  1024b2:	48 c7 84 24 d0 03 00 	movq   $0x0,0x3d0(%rsp)
  1024b9:	00 00 00 00 00 
  1024be:	c7 84 24 dc 03 00 00 	movl   $0x20,0x3dc(%rsp)
  1024c5:	20 00 00 00 
  1024c9:	40 88 bc 24 e3 03 00 	mov    %dil,0x3e3(%rsp)
  1024d0:	00 
  1024d1:	c7 84 24 e4 03 00 00 	movl   $0x4,0x3e4(%rsp)
  1024d8:	04 00 00 00 
  1024dc:	48 89 b4 24 e8 03 00 	mov    %rsi,0x3e8(%rsp)
  1024e3:	00 
  1024e4:	48 89 94 24 f0 03 00 	mov    %rdx,0x3f0(%rsp)
  1024eb:	00 
  1024ec:	48 89 8c 24 f8 03 00 	mov    %rcx,0x3f8(%rsp)
  1024f3:	00 
  1024f4:	48 89 84 24 00 04 00 	mov    %rax,0x400(%rsp)
  1024fb:	00 
  1024fc:	48 c7 84 24 88 02 00 	movq   $0x0,0x288(%rsp)
  102503:	00 00 00 00 00 
  102508:	c7 84 24 90 02 00 00 	movl   $0x20,0x290(%rsp)
  10250f:	20 00 00 00 
  102513:	40 88 bc 24 98 02 00 	mov    %dil,0x298(%rsp)
  10251a:	00 
  10251b:	c7 84 24 94 02 00 00 	movl   $0x4,0x294(%rsp)
  102522:	04 00 00 00 
  102526:	48 89 b4 24 68 02 00 	mov    %rsi,0x268(%rsp)
  10252d:	00 
  10252e:	48 89 94 24 70 02 00 	mov    %rdx,0x270(%rsp)
  102535:	00 
  102536:	48 89 8c 24 78 02 00 	mov    %rcx,0x278(%rsp)
  10253d:	00 
  10253e:	48 89 84 24 80 02 00 	mov    %rax,0x280(%rsp)
  102545:	00 
  102546:	c6 84 24 07 03 00 00 	movb   $0x3,0x307(%rsp)
  10254d:	03 
  10254e:	48 c7 84 24 08 03 00 	movq   $0x2,0x308(%rsp)
  102555:	00 02 00 00 00 
  10255a:	48 c7 84 24 18 03 00 	movq   $0x2,0x318(%rsp)
  102561:	00 02 00 00 00 
  102566:	40 8a bc 24 07 03 00 	mov    0x307(%rsp),%dil
  10256d:	00 
  10256e:	48 8b b4 24 08 03 00 	mov    0x308(%rsp),%rsi
  102575:	00 
  102576:	48 8b 94 24 10 03 00 	mov    0x310(%rsp),%rdx
  10257d:	00 
  10257e:	48 8b 8c 24 18 03 00 	mov    0x318(%rsp),%rcx
  102585:	00 
  102586:	48 8b 84 24 20 03 00 	mov    0x320(%rsp),%rax
  10258d:	00 
  10258e:	48 c7 84 24 98 03 00 	movq   $0x1,0x398(%rsp)
  102595:	00 01 00 00 00 
  10259a:	c7 84 24 a4 03 00 00 	movl   $0x20,0x3a4(%rsp)
  1025a1:	20 00 00 00 
  1025a5:	40 88 bc 24 ab 03 00 	mov    %dil,0x3ab(%rsp)
  1025ac:	00 
  1025ad:	c7 84 24 ac 03 00 00 	movl   $0x4,0x3ac(%rsp)
  1025b4:	04 00 00 00 
  1025b8:	48 89 b4 24 b0 03 00 	mov    %rsi,0x3b0(%rsp)
  1025bf:	00 
  1025c0:	48 89 94 24 b8 03 00 	mov    %rdx,0x3b8(%rsp)
  1025c7:	00 
  1025c8:	48 89 8c 24 c0 03 00 	mov    %rcx,0x3c0(%rsp)
  1025cf:	00 
  1025d0:	48 89 84 24 c8 03 00 	mov    %rax,0x3c8(%rsp)
  1025d7:	00 
  1025d8:	48 c7 84 24 e8 02 00 	movq   $0x1,0x2e8(%rsp)
  1025df:	00 01 00 00 00 
  1025e4:	c7 84 24 f0 02 00 00 	movl   $0x20,0x2f0(%rsp)
  1025eb:	20 00 00 00 
  1025ef:	40 88 bc 24 f8 02 00 	mov    %dil,0x2f8(%rsp)
  1025f6:	00 
  1025f7:	c7 84 24 f4 02 00 00 	movl   $0x4,0x2f4(%rsp)
  1025fe:	04 00 00 00 
  102602:	48 89 b4 24 c8 02 00 	mov    %rsi,0x2c8(%rsp)
  102609:	00 
  10260a:	48 89 94 24 d0 02 00 	mov    %rdx,0x2d0(%rsp)
  102611:	00 
  102612:	48 89 8c 24 d8 02 00 	mov    %rcx,0x2d8(%rsp)
  102619:	00 
  10261a:	48 89 84 24 e0 02 00 	mov    %rax,0x2e0(%rsp)
  102621:	00 
  102622:	48 8d bc 24 f8 01 00 	lea    0x1f8(%rsp),%rdi
  102629:	00 
  10262a:	48 8d b4 24 68 02 00 	lea    0x268(%rsp),%rsi
  102631:	00 
  102632:	ba 38 00 00 00       	mov    $0x38,%edx
  102637:	e8 b4 63 00 00       	call   1089f0 <memcpy>
  10263c:	48 8d bc 24 f8 01 00 	lea    0x1f8(%rsp),%rdi
  102643:	00 
  102644:	48 83 c7 38          	add    $0x38,%rdi
  102648:	48 8d b4 24 c8 02 00 	lea    0x2c8(%rsp),%rsi
  10264f:	00 
  102650:	ba 38 00 00 00       	mov    $0x38,%edx
  102655:	e8 96 63 00 00       	call   1089f0 <memcpy>
  10265a:	48 8d bc 24 98 01 00 	lea    0x198(%rsp),%rdi
  102661:	00 
  102662:	48 8d 35 f7 00 02 00 	lea    0x200f7(%rip),%rsi        # 122760 <str.0+0x3b0>
  102669:	ba 03 00 00 00       	mov    $0x3,%edx
  10266e:	48 8d 8c 24 c8 01 00 	lea    0x1c8(%rsp),%rcx
  102675:	00 
  102676:	41 b8 02 00 00 00    	mov    $0x2,%r8d
  10267c:	4c 8d 8c 24 f8 01 00 	lea    0x1f8(%rsp),%r9
  102683:	00 
  102684:	48 c7 04 24 02 00 00 	movq   $0x2,(%rsp)
  10268b:	00 
  10268c:	e8 5f 92 01 00       	call   11b8f0 <_ZN4core3fmt9Arguments16new_v1_formatted17h8a6c81ef29d4349fE>
  102691:	48 8d bc 24 97 01 00 	lea    0x197(%rsp),%rdi
  102698:	00 
  102699:	48 8d b4 24 98 01 00 	lea    0x198(%rsp),%rsi
  1026a0:	00 
  1026a1:	e8 aa 21 00 00       	call   104850 <_ZN4core3fmt5Write9write_fmt17hccb14a4ded65d011E>
  1026a6:	0f b6 f8             	movzbl %al,%edi
  1026a9:	83 e7 01             	and    $0x1,%edi
  1026ac:	48 8d 35 dd 00 02 00 	lea    0x200dd(%rip),%rsi        # 122790 <str.0+0x3e0>
  1026b3:	e8 78 32 01 00       	call   115930 <_ZN4core6result19Result$LT$T$C$E$GT$6unwrap17h501db31922113f90E>
  1026b8:	48 8d bc 24 48 01 00 	lea    0x148(%rsp),%rdi
  1026bf:	00 
  1026c0:	e8 0b 52 00 00       	call   1078d0 <_ZN10multiboot212elf_sections10ElfSection13start_address17hb92cfbe115f55ecbE>
  1026c5:	48 89 c7             	mov    %rax,%rdi
  1026c8:	e8 03 af 01 00       	call   11d5d0 <_ZN9bubble_os3mem9PageFrame12from_address17h0840620e289e3f11E>
  1026cd:	48 89 44 24 38       	mov    %rax,0x38(%rsp)
  1026d2:	48 89 84 24 70 03 00 	mov    %rax,0x370(%rsp)
  1026d9:	00 
  1026da:	48 8d bc 24 48 01 00 	lea    0x148(%rsp),%rdi
  1026e1:	00 
  1026e2:	e8 09 52 00 00       	call   1078f0 <_ZN10multiboot212elf_sections10ElfSection11end_address17ha4ccefcaf2609e8cE>
  1026e7:	48 89 c7             	mov    %rax,%rdi
  1026ea:	e8 e1 ae 01 00       	call   11d5d0 <_ZN9bubble_os3mem9PageFrame12from_address17h0840620e289e3f11E>
  1026ef:	48 89 84 24 28 03 00 	mov    %rax,0x328(%rsp)
  1026f6:	00 
  1026f7:	48 8d bc 24 28 03 00 	lea    0x328(%rsp),%rdi
  1026fe:	00 
  1026ff:	e8 2c af 01 00       	call   11d630 <_ZN9bubble_os3mem9PageFrame13start_address17h357e58f0aefd6d37E>
  102704:	48 8b 7c 24 38       	mov    0x38(%rsp),%rdi
  102709:	48 89 84 24 78 03 00 	mov    %rax,0x378(%rsp)
  102710:	00 
  102711:	48 8b b4 24 28 03 00 	mov    0x328(%rsp),%rsi
  102718:	00 
  102719:	e8 82 af 01 00       	call   11d6a0 <_ZN9bubble_os3mem9PageFrame5range17ha249a43f9133dcd5E>
  10271e:	48 89 84 24 80 03 00 	mov    %rax,0x380(%rsp)
  102725:	00 
  102726:	48 89 94 24 88 03 00 	mov    %rdx,0x388(%rsp)
  10272d:	00 
  10272e:	e9 8b fb ff ff       	jmp    1022be <_ZN9bubble_os3mem6paging12remap_kernel28_$u7b$$u7b$closure$u7d$$u7d$17h467dbc5cbe7d81baE+0x1ee>
  102733:	48 8d 35 6e 00 02 00 	lea    0x2006e(%rip),%rsi        # 1227a8 <str.0+0x3f8>
  10273a:	48 8d bc 24 60 01 00 	lea    0x160(%rsp),%rdi
  102741:	00 
  102742:	48 89 7c 24 10       	mov    %rdi,0x10(%rsp)
  102747:	ba 01 00 00 00       	mov    $0x1,%edx
  10274c:	e8 0f 93 01 00       	call   11ba60 <_ZN4core3fmt9Arguments9new_const17h6199737f6aa61dd0E>
  102751:	48 8b 7c 24 10       	mov    0x10(%rsp),%rdi
  102756:	48 8d 35 5b 00 02 00 	lea    0x2005b(%rip),%rsi        # 1227b8 <str.0+0x408>
  10275d:	e8 be 43 01 00       	call   116b20 <_ZN4core9panicking9panic_fmt17hcb17563f9e9a6761E>
  102762:	0f 0b                	ud2
  102764:	66 2e 0f 1f 84 00 00 	cs nopw 0x0(%rax,%rax,1)
  10276b:	00 00 00 
  10276e:	66 90                	xchg   %ax,%ax

0000000000102770 <_ZN4core4iter6traits8iterator8Iterator3map17h477a5dd8ed5dc610E>:
  102770:	48 83 ec 18          	sub    $0x18,%rsp
  102774:	48 89 f8             	mov    %rdi,%rax
  102777:	48 89 44 24 08       	mov    %rax,0x8(%rsp)
  10277c:	e8 4f f4 ff ff       	call   101bd0 <_ZN4core4iter8adapters3map16Map$LT$I$C$F$GT$3new17hb7f7e158e9115c1cE>
  102781:	48 8b 44 24 08       	mov    0x8(%rsp),%rax
  102786:	48 83 c4 18          	add    $0x18,%rsp
  10278a:	c3                   	ret
  10278b:	0f 1f 44 00 00       	nopl   0x0(%rax,%rax,1)

0000000000102790 <_ZN4core4iter6traits8iterator8Iterator3map17h4e7883660c1b4607E>:
  102790:	48 83 ec 18          	sub    $0x18,%rsp
  102794:	48 89 f8             	mov    %rdi,%rax
  102797:	48 89 44 24 08       	mov    %rax,0x8(%rsp)
  10279c:	e8 5f f4 ff ff       	call   101c00 <_ZN4core4iter8adapters3map16Map$LT$I$C$F$GT$3new17hfdcf1bad78bb7ad5E>
  1027a1:	48 8b 44 24 08       	mov    0x8(%rsp),%rax
  1027a6:	48 83 c4 18          	add    $0x18,%rsp
  1027aa:	c3                   	ret
  1027ab:	0f 1f 44 00 00       	nopl   0x0(%rax,%rax,1)

00000000001027b0 <_ZN4core4iter6traits8iterator8Iterator4fold17h44fea06f8bc1d69cE>:
  1027b0:	48 83 ec 78          	sub    $0x78,%rsp
  1027b4:	48 89 3c 24          	mov    %rdi,(%rsp)
  1027b8:	48 89 74 24 70       	mov    %rsi,0x70(%rsp)
  1027bd:	48 89 74 24 10       	mov    %rsi,0x10(%rsp)
  1027c2:	48 8b 34 24          	mov    (%rsp),%rsi
  1027c6:	48 8d 7c 24 18       	lea    0x18(%rsp),%rdi
  1027cb:	e8 c0 4d 00 00       	call   107590 <_ZN99_$LT$multiboot2..elf_sections..ElfSectionIter$u20$as$u20$core..iter..traits..iterator..Iterator$GT$4next17h2694b915dd07bf19E>
  1027d0:	48 83 7c 24 18 01    	cmpq   $0x1,0x18(%rsp)
  1027d6:	75 65                	jne    10283d <_ZN4core4iter6traits8iterator8Iterator4fold17h44fea06f8bc1d69cE+0x8d>
  1027d8:	48 8b 44 24 20       	mov    0x20(%rsp),%rax
  1027dd:	48 89 44 24 38       	mov    %rax,0x38(%rsp)
  1027e2:	48 8b 44 24 28       	mov    0x28(%rsp),%rax
  1027e7:	48 89 44 24 40       	mov    %rax,0x40(%rsp)
  1027ec:	48 8b 44 24 30       	mov    0x30(%rsp),%rax
  1027f1:	48 89 44 24 48       	mov    %rax,0x48(%rsp)
  1027f6:	48 8b 44 24 10       	mov    0x10(%rsp),%rax
  1027fb:	48 89 44 24 50       	mov    %rax,0x50(%rsp)
  102800:	48 8b 44 24 38       	mov    0x38(%rsp),%rax
  102805:	48 89 44 24 58       	mov    %rax,0x58(%rsp)
  10280a:	48 8b 44 24 40       	mov    0x40(%rsp),%rax
  10280f:	48 89 44 24 60       	mov    %rax,0x60(%rsp)
  102814:	48 8b 44 24 48       	mov    0x48(%rsp),%rax
  102819:	48 89 44 24 68       	mov    %rax,0x68(%rsp)
  10281e:	48 8b 74 24 50       	mov    0x50(%rsp),%rsi
  102823:	48 8d 54 24 50       	lea    0x50(%rsp),%rdx
  102828:	48 83 c2 08          	add    $0x8,%rdx
  10282c:	48 8d 7c 24 0f       	lea    0xf(%rsp),%rdi
  102831:	e8 1a f4 ff ff       	call   101c50 <_ZN4core4iter8adapters3map8map_fold28_$u7b$$u7b$closure$u7d$$u7d$17h09a440a373680fcaE>
  102836:	48 89 44 24 10       	mov    %rax,0x10(%rsp)
  10283b:	eb 85                	jmp    1027c2 <_ZN4core4iter6traits8iterator8Iterator4fold17h44fea06f8bc1d69cE+0x12>
  10283d:	48 8b 44 24 10       	mov    0x10(%rsp),%rax
  102842:	48 83 c4 78          	add    $0x78,%rsp
  102846:	c3                   	ret
  102847:	66 0f 1f 84 00 00 00 	nopw   0x0(%rax,%rax,1)
  10284e:	00 00 

0000000000102850 <_ZN4core4iter6traits8iterator8Iterator4fold17h90500339f73ff656E>:
  102850:	48 83 ec 78          	sub    $0x78,%rsp
  102854:	48 89 3c 24          	mov    %rdi,(%rsp)
  102858:	48 89 74 24 70       	mov    %rsi,0x70(%rsp)
  10285d:	48 89 74 24 10       	mov    %rsi,0x10(%rsp)
  102862:	48 8b 34 24          	mov    (%rsp),%rsi
  102866:	48 8d 7c 24 18       	lea    0x18(%rsp),%rdi
  10286b:	e8 20 4d 00 00       	call   107590 <_ZN99_$LT$multiboot2..elf_sections..ElfSectionIter$u20$as$u20$core..iter..traits..iterator..Iterator$GT$4next17h2694b915dd07bf19E>
  102870:	48 83 7c 24 18 01    	cmpq   $0x1,0x18(%rsp)
  102876:	75 65                	jne    1028dd <_ZN4core4iter6traits8iterator8Iterator4fold17h90500339f73ff656E+0x8d>
  102878:	48 8b 44 24 20       	mov    0x20(%rsp),%rax
  10287d:	48 89 44 24 38       	mov    %rax,0x38(%rsp)
  102882:	48 8b 44 24 28       	mov    0x28(%rsp),%rax
  102887:	48 89 44 24 40       	mov    %rax,0x40(%rsp)
  10288c:	48 8b 44 24 30       	mov    0x30(%rsp),%rax
  102891:	48 89 44 24 48       	mov    %rax,0x48(%rsp)
  102896:	48 8b 44 24 10       	mov    0x10(%rsp),%rax
  10289b:	48 89 44 24 50       	mov    %rax,0x50(%rsp)
  1028a0:	48 8b 44 24 38       	mov    0x38(%rsp),%rax
  1028a5:	48 89 44 24 58       	mov    %rax,0x58(%rsp)
  1028aa:	48 8b 44 24 40       	mov    0x40(%rsp),%rax
  1028af:	48 89 44 24 60       	mov    %rax,0x60(%rsp)
  1028b4:	48 8b 44 24 48       	mov    0x48(%rsp),%rax
  1028b9:	48 89 44 24 68       	mov    %rax,0x68(%rsp)
  1028be:	48 8b 74 24 50       	mov    0x50(%rsp),%rsi
  1028c3:	48 8d 54 24 50       	lea    0x50(%rsp),%rdx
  1028c8:	48 83 c2 08          	add    $0x8,%rdx
  1028cc:	48 8d 7c 24 0f       	lea    0xf(%rsp),%rdi
  1028d1:	e8 ea f3 ff ff       	call   101cc0 <_ZN4core4iter8adapters3map8map_fold28_$u7b$$u7b$closure$u7d$$u7d$17hb563d2dc982383faE>
  1028d6:	48 89 44 24 10       	mov    %rax,0x10(%rsp)
  1028db:	eb 85                	jmp    102862 <_ZN4core4iter6traits8iterator8Iterator4fold17h90500339f73ff656E+0x12>
  1028dd:	48 8b 44 24 10       	mov    0x10(%rsp),%rax
  1028e2:	48 83 c4 78          	add    $0x78,%rsp
  1028e6:	c3                   	ret
  1028e7:	66 0f 1f 84 00 00 00 	nopw   0x0(%rax,%rax,1)
  1028ee:	00 00 

00000000001028f0 <_ZN63_$LT$I$u20$as$u20$core..iter..traits..collect..IntoIterator$GT$9into_iter17h876ae0395cbe60baE>:
  1028f0:	48 89 f8             	mov    %rdi,%rax
  1028f3:	48 8b 0e             	mov    (%rsi),%rcx
  1028f6:	48 89 0f             	mov    %rcx,(%rdi)
  1028f9:	48 8b 4e 08          	mov    0x8(%rsi),%rcx
  1028fd:	48 89 4f 08          	mov    %rcx,0x8(%rdi)
  102901:	48 8b 4e 10          	mov    0x10(%rsi),%rcx
  102905:	48 89 4f 10          	mov    %rcx,0x10(%rdi)
  102909:	c3                   	ret
  10290a:	66 0f 1f 44 00 00    	nopw   0x0(%rax,%rax,1)

0000000000102910 <_ZN6x86_6412instructions3tlb5flush17hcb66950577a04c26E>:
  102910:	50                   	push   %rax
  102911:	48 89 3c 24          	mov    %rdi,(%rsp)
  102915:	e8 56 aa 01 00       	call   11d370 <_ZN6x86_644addr8VirtAddr6as_u6417h3cd81b50789455cdE>
  10291a:	0f 01 38             	invlpg (%rax)
  10291d:	58                   	pop    %rax
  10291e:	c3                   	ret
  10291f:	90                   	nop

0000000000102920 <_ZN6x86_6412instructions3tlb9flush_all17ha09ddb74cec8b38aE>:
  102920:	48 83 ec 28          	sub    $0x28,%rsp
  102924:	48 8d 7c 24 08       	lea    0x8(%rsp),%rdi
  102929:	e8 22 a7 01 00       	call   11d050 <_ZN6x86_649registers7control6x86_6449_$LT$impl$u20$x86_64..registers..control..Cr3$GT$4read17h3c1c6f3b554fd551E>
  10292e:	48 8b 44 24 08       	mov    0x8(%rsp),%rax
  102933:	48 89 04 24          	mov    %rax,(%rsp)
  102937:	48 8b 74 24 10       	mov    0x10(%rsp),%rsi
  10293c:	48 89 74 24 18       	mov    %rsi,0x18(%rsp)
  102941:	48 8b 04 24          	mov    (%rsp),%rax
  102945:	48 89 44 24 20       	mov    %rax,0x20(%rsp)
  10294a:	48 8b 7c 24 20       	mov    0x20(%rsp),%rdi
  10294f:	e8 5c a7 01 00       	call   11d0b0 <_ZN6x86_649registers7control6x86_6449_$LT$impl$u20$x86_64..registers..control..Cr3$GT$5write17h1a4f405f60e45ddaE>
  102954:	48 83 c4 28          	add    $0x28,%rsp
  102958:	c3                   	ret
  102959:	0f 1f 80 00 00 00 00 	nopl   0x0(%rax)

0000000000102960 <_ZN9bubble_os3mem27simple_page_frame_allocator24SimplePageFrameAllocator3new17h4f0421b958dc4b2dE>:
  102960:	48 83 ec 48          	sub    $0x48,%rsp
  102964:	48 89 74 24 08       	mov    %rsi,0x8(%rsp)
  102969:	48 89 7c 24 28       	mov    %rdi,0x28(%rsp)
  10296e:	48 89 74 24 30       	mov    %rsi,0x30(%rsp)
  102973:	e8 58 ac 01 00       	call   11d5d0 <_ZN9bubble_os3mem9PageFrame12from_address17h0840620e289e3f11E>
  102978:	48 8b 7c 24 08       	mov    0x8(%rsp),%rdi
  10297d:	48 89 44 24 10       	mov    %rax,0x10(%rsp)
  102982:	48 89 44 24 38       	mov    %rax,0x38(%rsp)
  102987:	e8 44 ac 01 00       	call   11d5d0 <_ZN9bubble_os3mem9PageFrame12from_address17h0840620e289e3f11E>
  10298c:	48 8b 4c 24 10       	mov    0x10(%rsp),%rcx
  102991:	48 89 44 24 40       	mov    %rax,0x40(%rsp)
  102996:	48 89 4c 24 18       	mov    %rcx,0x18(%rsp)
  10299b:	48 89 44 24 20       	mov    %rax,0x20(%rsp)
  1029a0:	48 8b 44 24 18       	mov    0x18(%rsp),%rax
  1029a5:	48 8b 54 24 20       	mov    0x20(%rsp),%rdx
  1029aa:	48 83 c4 48          	add    $0x48,%rsp
  1029ae:	c3                   	ret
  1029af:	90                   	nop

00000000001029b0 <_ZN124_$LT$bubble_os..mem..simple_page_frame_allocator..SimplePageFrameAllocator$u20$as$u20$bubble_os..mem..PageFrameAllocator$GT$6falloc17h199366ededbc5462E>:
  1029b0:	48 83 ec 68          	sub    $0x68,%rsp
  1029b4:	48 89 7c 24 18       	mov    %rdi,0x18(%rsp)
  1029b9:	48 89 7c 24 50       	mov    %rdi,0x50(%rsp)
  1029be:	48 83 c7 08          	add    $0x8,%rdi
  1029c2:	e8 69 ac 01 00       	call   11d630 <_ZN9bubble_os3mem9PageFrame13start_address17h357e58f0aefd6d37E>
  1029c7:	48 8b 7c 24 18       	mov    0x18(%rsp),%rdi
  1029cc:	48 89 44 24 20       	mov    %rax,0x20(%rsp)
  1029d1:	48 89 44 24 58       	mov    %rax,0x58(%rsp)
  1029d6:	e8 55 ac 01 00       	call   11d630 <_ZN9bubble_os3mem9PageFrame13start_address17h357e58f0aefd6d37E>
  1029db:	48 89 44 24 28       	mov    %rax,0x28(%rsp)
  1029e0:	48 89 44 24 60       	mov    %rax,0x60(%rsp)
  1029e5:	48 03 05 9c f8 01 00 	add    0x1f89c(%rip),%rax        # 122288 <_ZN9bubble_os3mem9PAGE_SIZE17h9670f3bdcab7d609E>
  1029ec:	48 89 44 24 30       	mov    %rax,0x30(%rsp)
  1029f1:	0f 92 c0             	setb   %al
  1029f4:	a8 01                	test   $0x1,%al
  1029f6:	75 21                	jne    102a19 <_ZN124_$LT$bubble_os..mem..simple_page_frame_allocator..SimplePageFrameAllocator$u20$as$u20$bubble_os..mem..PageFrameAllocator$GT$6falloc17h199366ededbc5462E+0x69>
  1029f8:	48 8b 44 24 20       	mov    0x20(%rsp),%rax
  1029fd:	48 8b 4c 24 30       	mov    0x30(%rsp),%rcx
  102a02:	48 89 c2             	mov    %rax,%rdx
  102a05:	48 29 ca             	sub    %rcx,%rdx
  102a08:	48 89 54 24 10       	mov    %rdx,0x10(%rsp)
  102a0d:	48 39 c8             	cmp    %rcx,%rax
  102a10:	0f 92 c0             	setb   %al
  102a13:	a8 01                	test   $0x1,%al
  102a15:	75 2b                	jne    102a42 <_ZN124_$LT$bubble_os..mem..simple_page_frame_allocator..SimplePageFrameAllocator$u20$as$u20$bubble_os..mem..PageFrameAllocator$GT$6falloc17h199366ededbc5462E+0x92>
  102a17:	eb 1a                	jmp    102a33 <_ZN124_$LT$bubble_os..mem..simple_page_frame_allocator..SimplePageFrameAllocator$u20$as$u20$bubble_os..mem..PageFrameAllocator$GT$6falloc17h199366ededbc5462E+0x83>
  102a19:	48 8d 3d d0 b8 01 00 	lea    0x1b8d0(%rip),%rdi        # 11e2f0 <str.0>
  102a20:	48 8d 15 a9 fd 01 00 	lea    0x1fda9(%rip),%rdx        # 1227d0 <str.0+0x420>
  102a27:	be 1c 00 00 00       	mov    $0x1c,%esi
  102a2c:	e8 1f 42 01 00       	call   116c50 <_ZN4core9panicking5panic17h13a0ad3e62cace8fE>
  102a31:	0f 0b                	ud2
  102a33:	48 8b 44 24 10       	mov    0x10(%rsp),%rax
  102a38:	48 3d 00 10 00 00    	cmp    $0x1000,%rax
  102a3e:	72 36                	jb     102a76 <_ZN124_$LT$bubble_os..mem..simple_page_frame_allocator..SimplePageFrameAllocator$u20$as$u20$bubble_os..mem..PageFrameAllocator$GT$6falloc17h199366ededbc5462E+0xc6>
  102a40:	eb 1a                	jmp    102a5c <_ZN124_$LT$bubble_os..mem..simple_page_frame_allocator..SimplePageFrameAllocator$u20$as$u20$bubble_os..mem..PageFrameAllocator$GT$6falloc17h199366ededbc5462E+0xac>
  102a42:	48 8d 3d c7 b8 01 00 	lea    0x1b8c7(%rip),%rdi        # 11e310 <str.1>
  102a49:	48 8d 15 98 fd 01 00 	lea    0x1fd98(%rip),%rdx        # 1227e8 <str.0+0x438>
  102a50:	be 21 00 00 00       	mov    $0x21,%esi
  102a55:	e8 f6 41 01 00       	call   116c50 <_ZN4core9panicking5panic17h13a0ad3e62cace8fE>
  102a5a:	0f 0b                	ud2
  102a5c:	48 8b 44 24 28       	mov    0x28(%rsp),%rax
  102a61:	48 03 05 20 f8 01 00 	add    0x1f820(%rip),%rax        # 122288 <_ZN9bubble_os3mem9PAGE_SIZE17h9670f3bdcab7d609E>
  102a68:	48 89 44 24 08       	mov    %rax,0x8(%rsp)
  102a6d:	0f 92 c0             	setb   %al
  102a70:	a8 01                	test   $0x1,%al
  102a72:	75 46                	jne    102aba <_ZN124_$LT$bubble_os..mem..simple_page_frame_allocator..SimplePageFrameAllocator$u20$as$u20$bubble_os..mem..PageFrameAllocator$GT$6falloc17h199366ededbc5462E+0x10a>
  102a74:	eb 0b                	jmp    102a81 <_ZN124_$LT$bubble_os..mem..simple_page_frame_allocator..SimplePageFrameAllocator$u20$as$u20$bubble_os..mem..PageFrameAllocator$GT$6falloc17h199366ededbc5462E+0xd1>
  102a76:	48 c7 44 24 38 00 00 	movq   $0x0,0x38(%rsp)
  102a7d:	00 00 
  102a7f:	eb 53                	jmp    102ad4 <_ZN124_$LT$bubble_os..mem..simple_page_frame_allocator..SimplePageFrameAllocator$u20$as$u20$bubble_os..mem..PageFrameAllocator$GT$6falloc17h199366ededbc5462E+0x124>
  102a81:	48 8b 7c 24 08       	mov    0x8(%rsp),%rdi
  102a86:	e8 45 ab 01 00       	call   11d5d0 <_ZN9bubble_os3mem9PageFrame12from_address17h0840620e289e3f11E>
  102a8b:	48 89 44 24 48       	mov    %rax,0x48(%rsp)
  102a90:	48 8d 7c 24 48       	lea    0x48(%rsp),%rdi
  102a95:	e8 e6 ab 01 00       	call   11d680 <_ZN9bubble_os3mem9PageFrame5clone17h72c77acf7f614feeE>
  102a9a:	48 89 c1             	mov    %rax,%rcx
  102a9d:	48 8b 44 24 18       	mov    0x18(%rsp),%rax
  102aa2:	48 89 08             	mov    %rcx,(%rax)
  102aa5:	48 8b 44 24 48       	mov    0x48(%rsp),%rax
  102aaa:	48 89 44 24 40       	mov    %rax,0x40(%rsp)
  102aaf:	48 c7 44 24 38 01 00 	movq   $0x1,0x38(%rsp)
  102ab6:	00 00 
  102ab8:	eb 1a                	jmp    102ad4 <_ZN124_$LT$bubble_os..mem..simple_page_frame_allocator..SimplePageFrameAllocator$u20$as$u20$bubble_os..mem..PageFrameAllocator$GT$6falloc17h199366ededbc5462E+0x124>
  102aba:	48 8d 3d 2f b8 01 00 	lea    0x1b82f(%rip),%rdi        # 11e2f0 <str.0>
  102ac1:	48 8d 15 38 fd 01 00 	lea    0x1fd38(%rip),%rdx        # 122800 <str.0+0x450>
  102ac8:	be 1c 00 00 00       	mov    $0x1c,%esi
  102acd:	e8 7e 41 01 00       	call   116c50 <_ZN4core9panicking5panic17h13a0ad3e62cace8fE>
  102ad2:	0f 0b                	ud2
  102ad4:	48 8b 44 24 38       	mov    0x38(%rsp),%rax
  102ad9:	48 8b 54 24 40       	mov    0x40(%rsp),%rdx
  102ade:	48 83 c4 68          	add    $0x68,%rsp
  102ae2:	c3                   	ret
  102ae3:	66 2e 0f 1f 84 00 00 	cs nopw 0x0(%rax,%rax,1)
  102aea:	00 00 00 
  102aed:	0f 1f 00             	nopl   (%rax)

0000000000102af0 <_ZN9bubble_os3mem6paging11page_mapper6Mapper6map_to17h4157b23168821cafE>:
  102af0:	48 81 ec 98 00 00 00 	sub    $0x98,%rsp
  102af7:	4c 89 44 24 30       	mov    %r8,0x30(%rsp)
  102afc:	48 89 4c 24 08       	mov    %rcx,0x8(%rsp)
  102b01:	48 89 54 24 10       	mov    %rdx,0x10(%rsp)
  102b06:	48 89 74 24 48       	mov    %rsi,0x48(%rsp)
  102b0b:	48 89 7c 24 50       	mov    %rdi,0x50(%rsp)
  102b10:	48 89 54 24 58       	mov    %rdx,0x58(%rsp)
  102b15:	48 89 4c 24 60       	mov    %rcx,0x60(%rsp)
  102b1a:	4c 89 44 24 68       	mov    %r8,0x68(%rsp)
  102b1f:	e8 fc 90 01 00       	call   11bc20 <_ZN9bubble_os3mem6paging11page_mapper6Mapper10get_p4_mut17hbc15213e83040e76E>
  102b24:	48 89 44 24 18       	mov    %rax,0x18(%rsp)
  102b29:	48 89 44 24 70       	mov    %rax,0x70(%rsp)
  102b2e:	48 8d 7c 24 48       	lea    0x48(%rsp),%rdi
  102b33:	e8 38 9e 01 00       	call   11c970 <_ZN9bubble_os3mem6paging4Page8p4_index17he9b006d24df5e095E>
  102b38:	48 8b 7c 24 18       	mov    0x18(%rsp),%rdi
  102b3d:	48 8b 54 24 30       	mov    0x30(%rsp),%rdx
  102b42:	48 89 c6             	mov    %rax,%rsi
  102b45:	e8 e6 13 00 00       	call   103f30 <_ZN9bubble_os3mem6paging10page_table18PageTable$LT$L$GT$17next_table_create17h4e03282ede8f3d11E>
  102b4a:	48 89 44 24 20       	mov    %rax,0x20(%rsp)
  102b4f:	48 89 44 24 78       	mov    %rax,0x78(%rsp)
  102b54:	48 8d 7c 24 48       	lea    0x48(%rsp),%rdi
  102b59:	e8 32 9e 01 00       	call   11c990 <_ZN9bubble_os3mem6paging4Page8p3_index17hf5270376f5468210E>
  102b5e:	48 8b 7c 24 20       	mov    0x20(%rsp),%rdi
  102b63:	48 8b 54 24 30       	mov    0x30(%rsp),%rdx
  102b68:	48 89 c6             	mov    %rax,%rsi
  102b6b:	e8 40 17 00 00       	call   1042b0 <_ZN9bubble_os3mem6paging10page_table18PageTable$LT$L$GT$17next_table_create17ha436f422c462722fE>
  102b70:	48 89 44 24 28       	mov    %rax,0x28(%rsp)
  102b75:	48 89 84 24 80 00 00 	mov    %rax,0x80(%rsp)
  102b7c:	00 
  102b7d:	48 8d 7c 24 48       	lea    0x48(%rsp),%rdi
  102b82:	e8 29 9e 01 00       	call   11c9b0 <_ZN9bubble_os3mem6paging4Page8p2_index17hdcf9ba0e87ca3141E>
  102b87:	48 8b 7c 24 28       	mov    0x28(%rsp),%rdi
  102b8c:	48 8b 54 24 30       	mov    0x30(%rsp),%rdx
  102b91:	48 89 c6             	mov    %rax,%rsi
  102b94:	e8 d7 11 00 00       	call   103d70 <_ZN9bubble_os3mem6paging10page_table18PageTable$LT$L$GT$17next_table_create17h4c5a39f3f7a174feE>
  102b99:	48 89 44 24 38       	mov    %rax,0x38(%rsp)
  102b9e:	48 89 84 24 88 00 00 	mov    %rax,0x88(%rsp)
  102ba5:	00 
  102ba6:	48 8d 7c 24 48       	lea    0x48(%rsp),%rdi
  102bab:	e8 20 9e 01 00       	call   11c9d0 <_ZN9bubble_os3mem6paging4Page8p1_index17h0a5b9b4dfec03763E>
  102bb0:	48 8b 7c 24 38       	mov    0x38(%rsp),%rdi
  102bb5:	48 89 c6             	mov    %rax,%rsi
  102bb8:	48 8d 15 59 fc 01 00 	lea    0x1fc59(%rip),%rdx        # 122818 <str.0+0x468>
  102bbf:	e8 3c 0c 00 00       	call   103800 <_ZN114_$LT$bubble_os..mem..paging..page_table..PageTable$LT$L$GT$$u20$as$u20$core..ops..index..IndexMut$LT$usize$GT$$GT$9index_mut17hd51b33f0b932f488E>
  102bc4:	48 89 c7             	mov    %rax,%rdi
  102bc7:	48 89 7c 24 40       	mov    %rdi,0x40(%rsp)
  102bcc:	48 89 bc 24 90 00 00 	mov    %rdi,0x90(%rsp)
  102bd3:	00 
  102bd4:	e8 b7 92 01 00       	call   11be90 <_ZN9bubble_os3mem6paging5entry14PageTableEntry9is_unused17h9725f3ecc2c1d9d6E>
  102bd9:	a8 01                	test   $0x1,%al
  102bdb:	75 1a                	jne    102bf7 <_ZN9bubble_os3mem6paging11page_mapper6Mapper6map_to17h4157b23168821cafE+0x107>
  102bdd:	48 8d 3d 6a b7 01 00 	lea    0x1b76a(%rip),%rdi        # 11e34e <str.1+0x3e>
  102be4:	48 8d 15 45 fc 01 00 	lea    0x1fc45(%rip),%rdx        # 122830 <str.0+0x480>
  102beb:	be 23 00 00 00       	mov    $0x23,%esi
  102bf0:	e8 5b 40 01 00       	call   116c50 <_ZN4core9panicking5panic17h13a0ad3e62cace8fE>
  102bf5:	0f 0b                	ud2
  102bf7:	48 8b 7c 24 08       	mov    0x8(%rsp),%rdi
  102bfc:	be 01 00 00 00       	mov    $0x1,%esi
  102c01:	e8 5a 9c 01 00       	call   11c860 <_ZN9bubble_os3mem6paging5entry1_93_$LT$impl$u20$core..ops..bit..BitOr$u20$for$u20$bubble_os..mem..paging..entry..EntryFlags$GT$5bitor17h652ab14438ba6e14E>
  102c06:	48 8b 7c 24 40       	mov    0x40(%rsp),%rdi
  102c0b:	48 8b 74 24 10       	mov    0x10(%rsp),%rsi
  102c10:	48 89 c2             	mov    %rax,%rdx
  102c13:	e8 28 93 01 00       	call   11bf40 <_ZN9bubble_os3mem6paging5entry14PageTableEntry3set17hafd52c8fd7765761E>
  102c18:	48 81 c4 98 00 00 00 	add    $0x98,%rsp
  102c1f:	c3                   	ret

0000000000102c20 <_ZN9bubble_os3mem6paging11page_mapper6Mapper6map_to17had96a24523626f9aE>:
  102c20:	48 81 ec 98 00 00 00 	sub    $0x98,%rsp
  102c27:	4c 89 44 24 30       	mov    %r8,0x30(%rsp)
  102c2c:	48 89 4c 24 08       	mov    %rcx,0x8(%rsp)
  102c31:	48 89 54 24 10       	mov    %rdx,0x10(%rsp)
  102c36:	48 89 74 24 48       	mov    %rsi,0x48(%rsp)
  102c3b:	48 89 7c 24 50       	mov    %rdi,0x50(%rsp)
  102c40:	48 89 54 24 58       	mov    %rdx,0x58(%rsp)
  102c45:	48 89 4c 24 60       	mov    %rcx,0x60(%rsp)
  102c4a:	4c 89 44 24 68       	mov    %r8,0x68(%rsp)
  102c4f:	e8 cc 8f 01 00       	call   11bc20 <_ZN9bubble_os3mem6paging11page_mapper6Mapper10get_p4_mut17hbc15213e83040e76E>
  102c54:	48 89 44 24 18       	mov    %rax,0x18(%rsp)
  102c59:	48 89 44 24 70       	mov    %rax,0x70(%rsp)
  102c5e:	48 8d 7c 24 48       	lea    0x48(%rsp),%rdi
  102c63:	e8 08 9d 01 00       	call   11c970 <_ZN9bubble_os3mem6paging4Page8p4_index17he9b006d24df5e095E>
  102c68:	48 8b 7c 24 18       	mov    0x18(%rsp),%rdi
  102c6d:	48 8b 54 24 30       	mov    0x30(%rsp),%rdx
  102c72:	48 89 c6             	mov    %rax,%rsi
  102c75:	e8 b6 19 00 00       	call   104630 <_ZN9bubble_os3mem6paging10page_table18PageTable$LT$L$GT$17next_table_create17hebf2bba49b07de3eE>
  102c7a:	48 89 44 24 20       	mov    %rax,0x20(%rsp)
  102c7f:	48 89 44 24 78       	mov    %rax,0x78(%rsp)
  102c84:	48 8d 7c 24 48       	lea    0x48(%rsp),%rdi
  102c89:	e8 02 9d 01 00       	call   11c990 <_ZN9bubble_os3mem6paging4Page8p3_index17hf5270376f5468210E>
  102c8e:	48 8b 7c 24 20       	mov    0x20(%rsp),%rdi
  102c93:	48 8b 54 24 30       	mov    0x30(%rsp),%rdx
  102c98:	48 89 c6             	mov    %rax,%rsi
  102c9b:	e8 d0 17 00 00       	call   104470 <_ZN9bubble_os3mem6paging10page_table18PageTable$LT$L$GT$17next_table_create17hbebcf02a5762412bE>
  102ca0:	48 89 44 24 28       	mov    %rax,0x28(%rsp)
  102ca5:	48 89 84 24 80 00 00 	mov    %rax,0x80(%rsp)
  102cac:	00 
  102cad:	48 8d 7c 24 48       	lea    0x48(%rsp),%rdi
  102cb2:	e8 f9 9c 01 00       	call   11c9b0 <_ZN9bubble_os3mem6paging4Page8p2_index17hdcf9ba0e87ca3141E>
  102cb7:	48 8b 7c 24 28       	mov    0x28(%rsp),%rdi
  102cbc:	48 8b 54 24 30       	mov    0x30(%rsp),%rdx
  102cc1:	48 89 c6             	mov    %rax,%rsi
  102cc4:	e8 27 14 00 00       	call   1040f0 <_ZN9bubble_os3mem6paging10page_table18PageTable$LT$L$GT$17next_table_create17h84de9a2ad7ebf881E>
  102cc9:	48 89 44 24 38       	mov    %rax,0x38(%rsp)
  102cce:	48 89 84 24 88 00 00 	mov    %rax,0x88(%rsp)
  102cd5:	00 
  102cd6:	48 8d 7c 24 48       	lea    0x48(%rsp),%rdi
  102cdb:	e8 f0 9c 01 00       	call   11c9d0 <_ZN9bubble_os3mem6paging4Page8p1_index17h0a5b9b4dfec03763E>
  102ce0:	48 8b 7c 24 38       	mov    0x38(%rsp),%rdi
  102ce5:	48 89 c6             	mov    %rax,%rsi
  102ce8:	48 8d 15 29 fb 01 00 	lea    0x1fb29(%rip),%rdx        # 122818 <str.0+0x468>
  102cef:	e8 0c 0b 00 00       	call   103800 <_ZN114_$LT$bubble_os..mem..paging..page_table..PageTable$LT$L$GT$$u20$as$u20$core..ops..index..IndexMut$LT$usize$GT$$GT$9index_mut17hd51b33f0b932f488E>
  102cf4:	48 89 c7             	mov    %rax,%rdi
  102cf7:	48 89 7c 24 40       	mov    %rdi,0x40(%rsp)
  102cfc:	48 89 bc 24 90 00 00 	mov    %rdi,0x90(%rsp)
  102d03:	00 
  102d04:	e8 87 91 01 00       	call   11be90 <_ZN9bubble_os3mem6paging5entry14PageTableEntry9is_unused17h9725f3ecc2c1d9d6E>
  102d09:	a8 01                	test   $0x1,%al
  102d0b:	75 1a                	jne    102d27 <_ZN9bubble_os3mem6paging11page_mapper6Mapper6map_to17had96a24523626f9aE+0x107>
  102d0d:	48 8d 3d 3a b6 01 00 	lea    0x1b63a(%rip),%rdi        # 11e34e <str.1+0x3e>
  102d14:	48 8d 15 15 fb 01 00 	lea    0x1fb15(%rip),%rdx        # 122830 <str.0+0x480>
  102d1b:	be 23 00 00 00       	mov    $0x23,%esi
  102d20:	e8 2b 3f 01 00       	call   116c50 <_ZN4core9panicking5panic17h13a0ad3e62cace8fE>
  102d25:	0f 0b                	ud2
  102d27:	48 8b 7c 24 08       	mov    0x8(%rsp),%rdi
  102d2c:	be 01 00 00 00       	mov    $0x1,%esi
  102d31:	e8 2a 9b 01 00       	call   11c860 <_ZN9bubble_os3mem6paging5entry1_93_$LT$impl$u20$core..ops..bit..BitOr$u20$for$u20$bubble_os..mem..paging..entry..EntryFlags$GT$5bitor17h652ab14438ba6e14E>
  102d36:	48 8b 7c 24 40       	mov    0x40(%rsp),%rdi
  102d3b:	48 8b 74 24 10       	mov    0x10(%rsp),%rsi
  102d40:	48 89 c2             	mov    %rax,%rdx
  102d43:	e8 f8 91 01 00       	call   11bf40 <_ZN9bubble_os3mem6paging5entry14PageTableEntry3set17hafd52c8fd7765761E>
  102d48:	48 81 c4 98 00 00 00 	add    $0x98,%rsp
  102d4f:	c3                   	ret

0000000000102d50 <_ZN9bubble_os3mem6paging11page_mapper6Mapper12map_identity17h75078da2441b3c55E>:
  102d50:	48 83 ec 48          	sub    $0x48,%rsp
  102d54:	48 89 4c 24 18       	mov    %rcx,0x18(%rsp)
  102d59:	48 89 54 24 10       	mov    %rdx,0x10(%rsp)
  102d5e:	48 89 7c 24 08       	mov    %rdi,0x8(%rsp)
  102d63:	48 89 74 24 20       	mov    %rsi,0x20(%rsp)
  102d68:	48 89 7c 24 28       	mov    %rdi,0x28(%rsp)
  102d6d:	48 89 54 24 30       	mov    %rdx,0x30(%rsp)
  102d72:	48 89 4c 24 38       	mov    %rcx,0x38(%rsp)
  102d77:	48 8d 7c 24 20       	lea    0x20(%rsp),%rdi
  102d7c:	e8 af a8 01 00       	call   11d630 <_ZN9bubble_os3mem9PageFrame13start_address17h357e58f0aefd6d37E>
  102d81:	48 89 c7             	mov    %rax,%rdi
  102d84:	e8 f7 9a 01 00       	call   11c880 <_ZN9bubble_os3mem6paging4Page11for_address17hd62c5d0ba7984b12E>
  102d89:	48 8b 7c 24 08       	mov    0x8(%rsp),%rdi
  102d8e:	48 8b 4c 24 10       	mov    0x10(%rsp),%rcx
  102d93:	4c 8b 44 24 18       	mov    0x18(%rsp),%r8
  102d98:	48 89 c6             	mov    %rax,%rsi
  102d9b:	48 89 74 24 40       	mov    %rsi,0x40(%rsp)
  102da0:	48 8b 54 24 20       	mov    0x20(%rsp),%rdx
  102da5:	e8 76 fe ff ff       	call   102c20 <_ZN9bubble_os3mem6paging11page_mapper6Mapper6map_to17had96a24523626f9aE>
  102daa:	48 83 c4 48          	add    $0x48,%rsp
  102dae:	c3                   	ret
  102daf:	90                   	nop

0000000000102db0 <_ZN9bubble_os3mem6paging11page_mapper6Mapper5unmap17h6fdf903c59553949E>:
  102db0:	48 83 ec 78          	sub    $0x78,%rsp
  102db4:	48 89 7c 24 20       	mov    %rdi,0x20(%rsp)
  102db9:	48 89 74 24 28       	mov    %rsi,0x28(%rsp)
  102dbe:	48 89 7c 24 50       	mov    %rdi,0x50(%rsp)
  102dc3:	48 89 54 24 58       	mov    %rdx,0x58(%rsp)
  102dc8:	48 8d 7c 24 28       	lea    0x28(%rsp),%rdi
  102dcd:	e8 4e 9b 01 00       	call   11c920 <_ZN9bubble_os3mem6paging4Page13start_address17hf0184c023ee71be9E>
  102dd2:	48 8b 7c 24 20       	mov    0x20(%rsp),%rdi
  102dd7:	48 89 c6             	mov    %rax,%rsi
  102dda:	e8 51 8e 01 00       	call   11bc30 <_ZN9bubble_os3mem6paging11page_mapper6Mapper17translate_to_phys17h3f70eea11474ea6eE>
  102ddf:	48 89 54 24 38       	mov    %rdx,0x38(%rsp)
  102de4:	48 89 44 24 30       	mov    %rax,0x30(%rsp)
  102de9:	48 8d 7c 24 30       	lea    0x30(%rsp),%rdi
  102dee:	e8 ad 88 00 00       	call   10b6a0 <_ZN4core6option15Option$LT$T$GT$7is_some17h4691985cae827553E>
  102df3:	a8 01                	test   $0x1,%al
  102df5:	75 1a                	jne    102e11 <_ZN9bubble_os3mem6paging11page_mapper6Mapper5unmap17h6fdf903c59553949E+0x61>
  102df7:	48 8d 3d 73 b5 01 00 	lea    0x1b573(%rip),%rdi        # 11e371 <str.1+0x61>
  102dfe:	48 8d 15 43 fa 01 00 	lea    0x1fa43(%rip),%rdx        # 122848 <str.0+0x498>
  102e05:	be 48 00 00 00       	mov    $0x48,%esi
  102e0a:	e8 41 3e 01 00       	call   116c50 <_ZN4core9panicking5panic17h13a0ad3e62cace8fE>
  102e0f:	0f 0b                	ud2
  102e11:	48 8b 7c 24 20       	mov    0x20(%rsp),%rdi
  102e16:	e8 05 8e 01 00       	call   11bc20 <_ZN9bubble_os3mem6paging11page_mapper6Mapper10get_p4_mut17hbc15213e83040e76E>
  102e1b:	48 89 04 24          	mov    %rax,(%rsp)
  102e1f:	48 8d 7c 24 28       	lea    0x28(%rsp),%rdi
  102e24:	e8 47 9b 01 00       	call   11c970 <_ZN9bubble_os3mem6paging4Page8p4_index17he9b006d24df5e095E>
  102e29:	48 8b 3c 24          	mov    (%rsp),%rdi
  102e2d:	48 89 c6             	mov    %rax,%rsi
  102e30:	e8 9b 0c 00 00       	call   103ad0 <_ZN9bubble_os3mem6paging10page_table18PageTable$LT$L$GT$14next_table_mut17hf16ca18485ed5e0dE>
  102e35:	48 89 c7             	mov    %rax,%rdi
  102e38:	48 8d 44 24 28       	lea    0x28(%rsp),%rax
  102e3d:	48 89 44 24 40       	mov    %rax,0x40(%rsp)
  102e42:	48 8b 74 24 40       	mov    0x40(%rsp),%rsi
  102e47:	e8 34 e8 ff ff       	call   101680 <_ZN4core6option15Option$LT$T$GT$8and_then17h85b885c641b0257aE>
  102e4c:	48 89 c7             	mov    %rax,%rdi
  102e4f:	48 8d 44 24 28       	lea    0x28(%rsp),%rax
  102e54:	48 89 44 24 48       	mov    %rax,0x48(%rsp)
  102e59:	48 8b 74 24 48       	mov    0x48(%rsp),%rsi
  102e5e:	e8 9d e7 ff ff       	call   101600 <_ZN4core6option15Option$LT$T$GT$8and_then17h7e7e540dd0e0fbb7E>
  102e63:	48 89 c7             	mov    %rax,%rdi
  102e66:	48 8d 35 4c b5 01 00 	lea    0x1b54c(%rip),%rsi        # 11e3b9 <str.1+0xa9>
  102e6d:	ba 27 00 00 00       	mov    $0x27,%edx
  102e72:	48 8d 0d e7 f9 01 00 	lea    0x1f9e7(%rip),%rcx        # 122860 <str.0+0x4b0>
  102e79:	e8 b2 e1 ff ff       	call   101030 <_ZN4core6option15Option$LT$T$GT$6expect17ha16a9941e3a6ebe1E>
  102e7e:	48 89 44 24 08       	mov    %rax,0x8(%rsp)
  102e83:	48 89 44 24 60       	mov    %rax,0x60(%rsp)
  102e88:	48 8d 7c 24 28       	lea    0x28(%rsp),%rdi
  102e8d:	e8 3e 9b 01 00       	call   11c9d0 <_ZN9bubble_os3mem6paging4Page8p1_index17h0a5b9b4dfec03763E>
  102e92:	48 8b 7c 24 08       	mov    0x8(%rsp),%rdi
  102e97:	48 89 c6             	mov    %rax,%rsi
  102e9a:	48 8d 15 d7 f9 01 00 	lea    0x1f9d7(%rip),%rdx        # 122878 <str.0+0x4c8>
  102ea1:	e8 5a 09 00 00       	call   103800 <_ZN114_$LT$bubble_os..mem..paging..page_table..PageTable$LT$L$GT$$u20$as$u20$core..ops..index..IndexMut$LT$usize$GT$$GT$9index_mut17hd51b33f0b932f488E>
  102ea6:	48 89 44 24 10       	mov    %rax,0x10(%rsp)
  102eab:	48 89 44 24 68       	mov    %rax,0x68(%rsp)
  102eb0:	48 8d 7c 24 28       	lea    0x28(%rsp),%rdi
  102eb5:	e8 66 9a 01 00       	call   11c920 <_ZN9bubble_os3mem6paging4Page13start_address17hf0184c023ee71be9E>
  102eba:	48 89 c7             	mov    %rax,%rdi
  102ebd:	e8 7e a4 01 00       	call   11d340 <_ZN6x86_644addr8VirtAddr3new17h7724ed03f9d37e99E>
  102ec2:	48 8b 7c 24 10       	mov    0x10(%rsp),%rdi
  102ec7:	48 89 44 24 18       	mov    %rax,0x18(%rsp)
  102ecc:	48 89 44 24 70       	mov    %rax,0x70(%rsp)
  102ed1:	e8 da 8f 01 00       	call   11beb0 <_ZN9bubble_os3mem6paging5entry14PageTableEntry13set_to_unused17h263fde2de1d09ec0E>
  102ed6:	48 8b 7c 24 18       	mov    0x18(%rsp),%rdi
  102edb:	e8 30 fa ff ff       	call   102910 <_ZN6x86_6412instructions3tlb5flush17hcb66950577a04c26E>
  102ee0:	48 83 c4 78          	add    $0x78,%rsp
  102ee4:	c3                   	ret
  102ee5:	66 2e 0f 1f 84 00 00 	cs nopw 0x0(%rax,%rax,1)
  102eec:	00 00 00 
  102eef:	90                   	nop

0000000000102ef0 <_ZN9bubble_os3mem6paging11page_mapper6Mapper5unmap28_$u7b$$u7b$closure$u7d$$u7d$17hc9afd1e7d650c111E>:
  102ef0:	48 83 ec 18          	sub    $0x18,%rsp
  102ef4:	48 89 34 24          	mov    %rsi,(%rsp)
  102ef8:	48 89 7c 24 08       	mov    %rdi,0x8(%rsp)
  102efd:	48 89 74 24 10       	mov    %rsi,0x10(%rsp)
  102f02:	48 8b 7c 24 08       	mov    0x8(%rsp),%rdi
  102f07:	e8 84 9a 01 00       	call   11c990 <_ZN9bubble_os3mem6paging4Page8p3_index17hf5270376f5468210E>
  102f0c:	48 8b 3c 24          	mov    (%rsp),%rdi
  102f10:	48 89 c6             	mov    %rax,%rsi
  102f13:	e8 88 0b 00 00       	call   103aa0 <_ZN9bubble_os3mem6paging10page_table18PageTable$LT$L$GT$14next_table_mut17h44cafe97c89d3fb6E>
  102f18:	48 83 c4 18          	add    $0x18,%rsp
  102f1c:	c3                   	ret
  102f1d:	0f 1f 00             	nopl   (%rax)

0000000000102f20 <_ZN9bubble_os3mem6paging11page_mapper6Mapper5unmap28_$u7b$$u7b$closure$u7d$$u7d$17h1f675b51c5901437E>:
  102f20:	48 83 ec 18          	sub    $0x18,%rsp
  102f24:	48 89 34 24          	mov    %rsi,(%rsp)
  102f28:	48 89 7c 24 08       	mov    %rdi,0x8(%rsp)
  102f2d:	48 89 74 24 10       	mov    %rsi,0x10(%rsp)
  102f32:	48 8b 7c 24 08       	mov    0x8(%rsp),%rdi
  102f37:	e8 74 9a 01 00       	call   11c9b0 <_ZN9bubble_os3mem6paging4Page8p2_index17hdcf9ba0e87ca3141E>
  102f3c:	48 8b 3c 24          	mov    (%rsp),%rdi
  102f40:	48 89 c6             	mov    %rax,%rsi
  102f43:	e8 b8 0b 00 00       	call   103b00 <_ZN9bubble_os3mem6paging10page_table18PageTable$LT$L$GT$14next_table_mut17hf1e4905b27c81e36E>
  102f48:	48 83 c4 18          	add    $0x18,%rsp
  102f4c:	c3                   	ret
  102f4d:	0f 1f 00             	nopl   (%rax)

0000000000102f50 <_ZN9bubble_os3mem6paging11page_mapper6Mapper17translate_to_phys28_$u7b$$u7b$closure$u7d$$u7d$17hf11ac8bc09c22fbfE>:
  102f50:	48 83 ec 28          	sub    $0x28,%rsp
  102f54:	48 89 f0             	mov    %rsi,%rax
  102f57:	48 89 7c 24 18       	mov    %rdi,0x18(%rsp)
  102f5c:	48 89 44 24 20       	mov    %rax,0x20(%rsp)
  102f61:	48 f7 25 20 f3 01 00 	mulq   0x1f320(%rip)        # 122288 <_ZN9bubble_os3mem9PAGE_SIZE17h9670f3bdcab7d609E>
  102f68:	48 89 44 24 10       	mov    %rax,0x10(%rsp)
  102f6d:	0f 90 c0             	seto   %al
  102f70:	a8 01                	test   $0x1,%al
  102f72:	75 1b                	jne    102f8f <_ZN9bubble_os3mem6paging11page_mapper6Mapper17translate_to_phys28_$u7b$$u7b$closure$u7d$$u7d$17hf11ac8bc09c22fbfE+0x3f>
  102f74:	48 8b 44 24 10       	mov    0x10(%rsp),%rax
  102f79:	48 8b 4c 24 18       	mov    0x18(%rsp),%rcx
  102f7e:	48 03 01             	add    (%rcx),%rax
  102f81:	48 89 44 24 08       	mov    %rax,0x8(%rsp)
  102f86:	0f 92 c0             	setb   %al
  102f89:	a8 01                	test   $0x1,%al
  102f8b:	75 26                	jne    102fb3 <_ZN9bubble_os3mem6paging11page_mapper6Mapper17translate_to_phys28_$u7b$$u7b$closure$u7d$$u7d$17hf11ac8bc09c22fbfE+0x63>
  102f8d:	eb 1a                	jmp    102fa9 <_ZN9bubble_os3mem6paging11page_mapper6Mapper17translate_to_phys28_$u7b$$u7b$closure$u7d$$u7d$17hf11ac8bc09c22fbfE+0x59>
  102f8f:	48 8d 3d 4a b4 01 00 	lea    0x1b44a(%rip),%rdi        # 11e3e0 <str.0>
  102f96:	48 8d 15 f3 f8 01 00 	lea    0x1f8f3(%rip),%rdx        # 122890 <str.0+0x4e0>
  102f9d:	be 21 00 00 00       	mov    $0x21,%esi
  102fa2:	e8 a9 3c 01 00       	call   116c50 <_ZN4core9panicking5panic17h13a0ad3e62cace8fE>
  102fa7:	0f 0b                	ud2
  102fa9:	48 8b 44 24 08       	mov    0x8(%rsp),%rax
  102fae:	48 83 c4 28          	add    $0x28,%rsp
  102fb2:	c3                   	ret
  102fb3:	48 8d 3d 56 b4 01 00 	lea    0x1b456(%rip),%rdi        # 11e410 <str.1>
  102fba:	48 8d 15 cf f8 01 00 	lea    0x1f8cf(%rip),%rdx        # 122890 <str.0+0x4e0>
  102fc1:	be 1c 00 00 00       	mov    $0x1c,%esi
  102fc6:	e8 85 3c 01 00       	call   116c50 <_ZN4core9panicking5panic17h13a0ad3e62cace8fE>
  102fcb:	0f 0b                	ud2
  102fcd:	0f 1f 00             	nopl   (%rax)

0000000000102fd0 <_ZN9bubble_os3mem6paging11page_mapper6Mapper14translate_page28_$u7b$$u7b$closure$u7d$$u7d$17h4ac9239cd7d61404E>:
  102fd0:	48 83 ec 18          	sub    $0x18,%rsp
  102fd4:	48 89 7c 24 10       	mov    %rdi,0x10(%rsp)
  102fd9:	48 8b 0f             	mov    (%rdi),%rcx
  102fdc:	48 8b 47 08          	mov    0x8(%rdi),%rax
  102fe0:	48 8b 39             	mov    (%rcx),%rdi
  102fe3:	48 89 44 24 08       	mov    %rax,0x8(%rsp)
  102fe8:	48 8b 74 24 08       	mov    0x8(%rsp),%rsi
  102fed:	e8 1e e8 ff ff       	call   101810 <_ZN4core6option15Option$LT$T$GT$8and_then17hd9708bf3bb924422E>
  102ff2:	48 83 c4 18          	add    $0x18,%rsp
  102ff6:	c3                   	ret
  102ff7:	66 0f 1f 84 00 00 00 	nopw   0x0(%rax,%rax,1)
  102ffe:	00 00 

0000000000103000 <_ZN9bubble_os3mem6paging11page_mapper6Mapper14translate_page28_$u7b$$u7b$closure$u7d$$u7d$28_$u7b$$u7b$closure$u7d$$u7d$17h9c17d682c2c055c7E>:
  103000:	48 81 ec f8 00 00 00 	sub    $0xf8,%rsp
  103007:	48 89 74 24 40       	mov    %rsi,0x40(%rsp)
  10300c:	48 89 7c 24 50       	mov    %rdi,0x50(%rsp)
  103011:	48 89 b4 24 b0 00 00 	mov    %rsi,0xb0(%rsp)
  103018:	00 
  103019:	48 8b 7c 24 50       	mov    0x50(%rsp),%rdi
  10301e:	e8 6d 99 01 00       	call   11c990 <_ZN9bubble_os3mem6paging4Page8p3_index17hf5270376f5468210E>
  103023:	48 8b 7c 24 40       	mov    0x40(%rsp),%rdi
  103028:	48 89 c6             	mov    %rax,%rsi
  10302b:	48 8d 15 76 f8 01 00 	lea    0x1f876(%rip),%rdx        # 1228a8 <str.0+0x4f8>
  103032:	e8 e9 05 00 00       	call   103620 <_ZN111_$LT$bubble_os..mem..paging..page_table..PageTable$LT$L$GT$$u20$as$u20$core..ops..index..Index$LT$usize$GT$$GT$5index17h04392d0a4b8a0363E>
  103037:	48 89 c7             	mov    %rax,%rdi
  10303a:	48 89 f8             	mov    %rdi,%rax
  10303d:	48 89 44 24 48       	mov    %rax,0x48(%rsp)
  103042:	48 89 bc 24 b8 00 00 	mov    %rdi,0xb8(%rsp)
  103049:	00 
  10304a:	e8 81 8e 01 00       	call   11bed0 <_ZN9bubble_os3mem6paging5entry14PageTableEntry9get_frame17h783fba15cc2c3eeaE>
  10304f:	48 89 54 24 70       	mov    %rdx,0x70(%rsp)
  103054:	48 89 44 24 68       	mov    %rax,0x68(%rsp)
  103059:	48 83 7c 24 68 01    	cmpq   $0x1,0x68(%rsp)
  10305f:	75 34                	jne    103095 <_ZN9bubble_os3mem6paging11page_mapper6Mapper14translate_page28_$u7b$$u7b$closure$u7d$$u7d$28_$u7b$$u7b$closure$u7d$$u7d$17h9c17d682c2c055c7E+0x95>
  103061:	48 8b 7c 24 48       	mov    0x48(%rsp),%rdi
  103066:	48 8b 44 24 70       	mov    0x70(%rsp),%rax
  10306b:	48 89 44 24 38       	mov    %rax,0x38(%rsp)
  103070:	48 89 84 24 c0 00 00 	mov    %rax,0xc0(%rsp)
  103077:	00 
  103078:	e8 43 8e 01 00       	call   11bec0 <_ZN9bubble_os3mem6paging5entry14PageTableEntry5flags17hb5b6b1241c161e91E>
  10307d:	48 89 44 24 78       	mov    %rax,0x78(%rsp)
  103082:	48 8d 7c 24 78       	lea    0x78(%rsp),%rdi
  103087:	be 80 00 00 00       	mov    $0x80,%esi
  10308c:	e8 8f 97 01 00       	call   11c820 <_ZN9bubble_os3mem6paging5entry1_59_$LT$impl$u20$bubble_os..mem..paging..entry..EntryFlags$GT$8contains17hf81178d5313797efE>
  103091:	a8 01                	test   $0x1,%al
  103093:	75 45                	jne    1030da <_ZN9bubble_os3mem6paging11page_mapper6Mapper14translate_page28_$u7b$$u7b$closure$u7d$$u7d$28_$u7b$$u7b$closure$u7d$$u7d$17h9c17d682c2c055c7E+0xda>
  103095:	48 8b 7c 24 50       	mov    0x50(%rsp),%rdi
  10309a:	e8 f1 98 01 00       	call   11c990 <_ZN9bubble_os3mem6paging4Page8p3_index17hf5270376f5468210E>
  10309f:	48 8b 7c 24 40       	mov    0x40(%rsp),%rdi
  1030a4:	48 89 c6             	mov    %rax,%rsi
  1030a7:	e8 64 09 00 00       	call   103a10 <_ZN9bubble_os3mem6paging10page_table18PageTable$LT$L$GT$10next_table17hf8beff2b6a09cf8cE>
  1030ac:	48 89 84 24 88 00 00 	mov    %rax,0x88(%rsp)
  1030b3:	00 
  1030b4:	48 8b 94 24 88 00 00 	mov    0x88(%rsp),%rdx
  1030bb:	00 
  1030bc:	b8 01 00 00 00       	mov    $0x1,%eax
  1030c1:	31 c9                	xor    %ecx,%ecx
  1030c3:	48 83 fa 00          	cmp    $0x0,%rdx
  1030c7:	48 0f 44 c1          	cmove  %rcx,%rax
  1030cb:	48 83 f8 01          	cmp    $0x1,%rax
  1030cf:	0f 84 2b 01 00 00    	je     103200 <_ZN9bubble_os3mem6paging11page_mapper6Mapper14translate_page28_$u7b$$u7b$closure$u7d$$u7d$28_$u7b$$u7b$closure$u7d$$u7d$17h9c17d682c2c055c7E+0x200>
  1030d5:	e9 8c 01 00 00       	jmp    103266 <_ZN9bubble_os3mem6paging11page_mapper6Mapper14translate_page28_$u7b$$u7b$closure$u7d$$u7d$28_$u7b$$u7b$closure$u7d$$u7d$17h9c17d682c2c055c7E+0x266>
  1030da:	48 8b 44 24 38       	mov    0x38(%rsp),%rax
  1030df:	48 c7 84 24 c8 00 00 	movq   $0x202,0xc8(%rsp)
  1030e6:	00 02 02 00 00 
  1030eb:	b9 02 02 00 00       	mov    $0x202,%ecx
  1030f0:	31 d2                	xor    %edx,%edx
  1030f2:	48 f7 f1             	div    %rcx
  1030f5:	48 83 fa 00          	cmp    $0x0,%rdx
  1030f9:	75 20                	jne    10311b <_ZN9bubble_os3mem6paging11page_mapper6Mapper14translate_page28_$u7b$$u7b$closure$u7d$$u7d$28_$u7b$$u7b$closure$u7d$$u7d$17h9c17d682c2c055c7E+0x11b>
  1030fb:	48 8b 7c 24 50       	mov    0x50(%rsp),%rdi
  103100:	e8 ab 98 01 00       	call   11c9b0 <_ZN9bubble_os3mem6paging4Page8p2_index17hdcf9ba0e87ca3141E>
  103105:	b9 00 02 00 00       	mov    $0x200,%ecx
  10310a:	48 f7 e1             	mul    %rcx
  10310d:	48 89 44 24 30       	mov    %rax,0x30(%rsp)
  103112:	0f 90 c0             	seto   %al
  103115:	a8 01                	test   $0x1,%al
  103117:	75 37                	jne    103150 <_ZN9bubble_os3mem6paging11page_mapper6Mapper14translate_page28_$u7b$$u7b$closure$u7d$$u7d$28_$u7b$$u7b$closure$u7d$$u7d$17h9c17d682c2c055c7E+0x150>
  103119:	eb 1a                	jmp    103135 <_ZN9bubble_os3mem6paging11page_mapper6Mapper14translate_page28_$u7b$$u7b$closure$u7d$$u7d$28_$u7b$$u7b$closure$u7d$$u7d$17h9c17d682c2c055c7E+0x135>
  10311b:	48 8d 3d 0a b3 01 00 	lea    0x1b30a(%rip),%rdi        # 11e42c <str.1+0x1c>
  103122:	48 8d 15 c7 f7 01 00 	lea    0x1f7c7(%rip),%rdx        # 1228f0 <str.0+0x540>
  103129:	be 3a 00 00 00       	mov    $0x3a,%esi
  10312e:	e8 1d 3b 01 00       	call   116c50 <_ZN4core9panicking5panic17h13a0ad3e62cace8fE>
  103133:	0f 0b                	ud2
  103135:	48 8b 4c 24 30       	mov    0x30(%rsp),%rcx
  10313a:	48 8b 44 24 38       	mov    0x38(%rsp),%rax
  10313f:	48 01 c8             	add    %rcx,%rax
  103142:	48 89 44 24 28       	mov    %rax,0x28(%rsp)
  103147:	0f 92 c0             	setb   %al
  10314a:	a8 01                	test   $0x1,%al
  10314c:	75 3f                	jne    10318d <_ZN9bubble_os3mem6paging11page_mapper6Mapper14translate_page28_$u7b$$u7b$closure$u7d$$u7d$28_$u7b$$u7b$closure$u7d$$u7d$17h9c17d682c2c055c7E+0x18d>
  10314e:	eb 1a                	jmp    10316a <_ZN9bubble_os3mem6paging11page_mapper6Mapper14translate_page28_$u7b$$u7b$closure$u7d$$u7d$28_$u7b$$u7b$closure$u7d$$u7d$17h9c17d682c2c055c7E+0x16a>
  103150:	48 8d 3d 89 b2 01 00 	lea    0x1b289(%rip),%rdi        # 11e3e0 <str.0>
  103157:	48 8d 15 62 f7 01 00 	lea    0x1f762(%rip),%rdx        # 1228c0 <str.0+0x510>
  10315e:	be 21 00 00 00       	mov    $0x21,%esi
  103163:	e8 e8 3a 01 00       	call   116c50 <_ZN4core9panicking5panic17h13a0ad3e62cace8fE>
  103168:	0f 0b                	ud2
  10316a:	48 8b 7c 24 50       	mov    0x50(%rsp),%rdi
  10316f:	e8 5c 98 01 00       	call   11c9d0 <_ZN9bubble_os3mem6paging4Page8p1_index17h0a5b9b4dfec03763E>
  103174:	48 89 c1             	mov    %rax,%rcx
  103177:	48 8b 44 24 28       	mov    0x28(%rsp),%rax
  10317c:	48 01 c8             	add    %rcx,%rax
  10317f:	48 89 44 24 20       	mov    %rax,0x20(%rsp)
  103184:	0f 92 c0             	setb   %al
  103187:	a8 01                	test   $0x1,%al
  103189:	75 49                	jne    1031d4 <_ZN9bubble_os3mem6paging11page_mapper6Mapper14translate_page28_$u7b$$u7b$closure$u7d$$u7d$28_$u7b$$u7b$closure$u7d$$u7d$17h9c17d682c2c055c7E+0x1d4>
  10318b:	eb 1a                	jmp    1031a7 <_ZN9bubble_os3mem6paging11page_mapper6Mapper14translate_page28_$u7b$$u7b$closure$u7d$$u7d$28_$u7b$$u7b$closure$u7d$$u7d$17h9c17d682c2c055c7E+0x1a7>
  10318d:	48 8d 3d 7c b2 01 00 	lea    0x1b27c(%rip),%rdi        # 11e410 <str.1>
  103194:	48 8d 15 3d f7 01 00 	lea    0x1f73d(%rip),%rdx        # 1228d8 <str.0+0x528>
  10319b:	be 1c 00 00 00       	mov    $0x1c,%esi
  1031a0:	e8 ab 3a 01 00       	call   116c50 <_ZN4core9panicking5panic17h13a0ad3e62cace8fE>
  1031a5:	0f 0b                	ud2
  1031a7:	48 8b 44 24 20       	mov    0x20(%rsp),%rax
  1031ac:	48 89 84 24 d0 00 00 	mov    %rax,0xd0(%rsp)
  1031b3:	00 
  1031b4:	48 89 84 24 80 00 00 	mov    %rax,0x80(%rsp)
  1031bb:	00 
  1031bc:	48 8b 84 24 80 00 00 	mov    0x80(%rsp),%rax
  1031c3:	00 
  1031c4:	48 89 44 24 60       	mov    %rax,0x60(%rsp)
  1031c9:	48 c7 44 24 58 01 00 	movq   $0x1,0x58(%rsp)
  1031d0:	00 00 
  1031d2:	eb 1a                	jmp    1031ee <_ZN9bubble_os3mem6paging11page_mapper6Mapper14translate_page28_$u7b$$u7b$closure$u7d$$u7d$28_$u7b$$u7b$closure$u7d$$u7d$17h9c17d682c2c055c7E+0x1ee>
  1031d4:	48 8d 3d 35 b2 01 00 	lea    0x1b235(%rip),%rdi        # 11e410 <str.1>
  1031db:	48 8d 15 f6 f6 01 00 	lea    0x1f6f6(%rip),%rdx        # 1228d8 <str.0+0x528>
  1031e2:	be 1c 00 00 00       	mov    $0x1c,%esi
  1031e7:	e8 64 3a 01 00       	call   116c50 <_ZN4core9panicking5panic17h13a0ad3e62cace8fE>
  1031ec:	0f 0b                	ud2
  1031ee:	48 8b 44 24 58       	mov    0x58(%rsp),%rax
  1031f3:	48 8b 54 24 60       	mov    0x60(%rsp),%rdx
  1031f8:	48 81 c4 f8 00 00 00 	add    $0xf8,%rsp
  1031ff:	c3                   	ret
  103200:	48 8b 84 24 88 00 00 	mov    0x88(%rsp),%rax
  103207:	00 
  103208:	48 89 44 24 10       	mov    %rax,0x10(%rsp)
  10320d:	48 89 84 24 d8 00 00 	mov    %rax,0xd8(%rsp)
  103214:	00 
  103215:	48 8b 7c 24 50       	mov    0x50(%rsp),%rdi
  10321a:	e8 91 97 01 00       	call   11c9b0 <_ZN9bubble_os3mem6paging4Page8p2_index17hdcf9ba0e87ca3141E>
  10321f:	48 8b 7c 24 10       	mov    0x10(%rsp),%rdi
  103224:	48 89 c6             	mov    %rax,%rsi
  103227:	48 8d 15 da f6 01 00 	lea    0x1f6da(%rip),%rdx        # 122908 <str.0+0x558>
  10322e:	e8 ad 04 00 00       	call   1036e0 <_ZN111_$LT$bubble_os..mem..paging..page_table..PageTable$LT$L$GT$$u20$as$u20$core..ops..index..Index$LT$usize$GT$$GT$5index17hb843fdfbb4b77883E>
  103233:	48 89 c7             	mov    %rax,%rdi
  103236:	48 89 f8             	mov    %rdi,%rax
  103239:	48 89 44 24 18       	mov    %rax,0x18(%rsp)
  10323e:	48 89 bc 24 e0 00 00 	mov    %rdi,0xe0(%rsp)
  103245:	00 
  103246:	e8 85 8c 01 00       	call   11bed0 <_ZN9bubble_os3mem6paging5entry14PageTableEntry9get_frame17h783fba15cc2c3eeaE>
  10324b:	48 89 94 24 98 00 00 	mov    %rdx,0x98(%rsp)
  103252:	00 
  103253:	48 89 84 24 90 00 00 	mov    %rax,0x90(%rsp)
  10325a:	00 
  10325b:	48 83 bc 24 90 00 00 	cmpq   $0x1,0x90(%rsp)
  103262:	00 01 
  103264:	74 0e                	je     103274 <_ZN9bubble_os3mem6paging11page_mapper6Mapper14translate_page28_$u7b$$u7b$closure$u7d$$u7d$28_$u7b$$u7b$closure$u7d$$u7d$17h9c17d682c2c055c7E+0x274>
  103266:	48 c7 44 24 58 00 00 	movq   $0x0,0x58(%rsp)
  10326d:	00 00 
  10326f:	e9 7a ff ff ff       	jmp    1031ee <_ZN9bubble_os3mem6paging11page_mapper6Mapper14translate_page28_$u7b$$u7b$closure$u7d$$u7d$28_$u7b$$u7b$closure$u7d$$u7d$17h9c17d682c2c055c7E+0x1ee>
  103274:	48 8b 7c 24 18       	mov    0x18(%rsp),%rdi
  103279:	48 8b 84 24 98 00 00 	mov    0x98(%rsp),%rax
  103280:	00 
  103281:	48 89 44 24 08       	mov    %rax,0x8(%rsp)
  103286:	48 89 84 24 e8 00 00 	mov    %rax,0xe8(%rsp)
  10328d:	00 
  10328e:	e8 2d 8c 01 00       	call   11bec0 <_ZN9bubble_os3mem6paging5entry14PageTableEntry5flags17hb5b6b1241c161e91E>
  103293:	48 89 84 24 a0 00 00 	mov    %rax,0xa0(%rsp)
  10329a:	00 
  10329b:	48 8d bc 24 a0 00 00 	lea    0xa0(%rsp),%rdi
  1032a2:	00 
  1032a3:	be 80 00 00 00       	mov    $0x80,%esi
  1032a8:	e8 73 95 01 00       	call   11c820 <_ZN9bubble_os3mem6paging5entry1_59_$LT$impl$u20$bubble_os..mem..paging..entry..EntryFlags$GT$8contains17hf81178d5313797efE>
  1032ad:	a8 01                	test   $0x1,%al
  1032af:	75 02                	jne    1032b3 <_ZN9bubble_os3mem6paging11page_mapper6Mapper14translate_page28_$u7b$$u7b$closure$u7d$$u7d$28_$u7b$$u7b$closure$u7d$$u7d$17h9c17d682c2c055c7E+0x2b3>
  1032b1:	eb b3                	jmp    103266 <_ZN9bubble_os3mem6paging11page_mapper6Mapper14translate_page28_$u7b$$u7b$closure$u7d$$u7d$28_$u7b$$u7b$closure$u7d$$u7d$17h9c17d682c2c055c7E+0x266>
  1032b3:	48 8b 44 24 08       	mov    0x8(%rsp),%rax
  1032b8:	48 25 ff 01 00 00    	and    $0x1ff,%rax
  1032be:	48 83 f8 00          	cmp    $0x0,%rax
  1032c2:	75 22                	jne    1032e6 <_ZN9bubble_os3mem6paging11page_mapper6Mapper14translate_page28_$u7b$$u7b$closure$u7d$$u7d$28_$u7b$$u7b$closure$u7d$$u7d$17h9c17d682c2c055c7E+0x2e6>
  1032c4:	48 8b 7c 24 50       	mov    0x50(%rsp),%rdi
  1032c9:	e8 02 97 01 00       	call   11c9d0 <_ZN9bubble_os3mem6paging4Page8p1_index17h0a5b9b4dfec03763E>
  1032ce:	48 89 c1             	mov    %rax,%rcx
  1032d1:	48 8b 44 24 08       	mov    0x8(%rsp),%rax
  1032d6:	48 01 c8             	add    %rcx,%rax
  1032d9:	48 89 04 24          	mov    %rax,(%rsp)
  1032dd:	0f 92 c0             	setb   %al
  1032e0:	a8 01                	test   $0x1,%al
  1032e2:	75 4b                	jne    10332f <_ZN9bubble_os3mem6paging11page_mapper6Mapper14translate_page28_$u7b$$u7b$closure$u7d$$u7d$28_$u7b$$u7b$closure$u7d$$u7d$17h9c17d682c2c055c7E+0x32f>
  1032e4:	eb 1a                	jmp    103300 <_ZN9bubble_os3mem6paging11page_mapper6Mapper14translate_page28_$u7b$$u7b$closure$u7d$$u7d$28_$u7b$$u7b$closure$u7d$$u7d$17h9c17d682c2c055c7E+0x300>
  1032e6:	48 8d 3d 79 b1 01 00 	lea    0x1b179(%rip),%rdi        # 11e466 <str.1+0x56>
  1032ed:	48 8d 15 44 f6 01 00 	lea    0x1f644(%rip),%rdx        # 122938 <str.0+0x588>
  1032f4:	be 43 00 00 00       	mov    $0x43,%esi
  1032f9:	e8 52 39 01 00       	call   116c50 <_ZN4core9panicking5panic17h13a0ad3e62cace8fE>
  1032fe:	0f 0b                	ud2
  103300:	48 8b 04 24          	mov    (%rsp),%rax
  103304:	48 89 84 24 f0 00 00 	mov    %rax,0xf0(%rsp)
  10330b:	00 
  10330c:	48 89 84 24 a8 00 00 	mov    %rax,0xa8(%rsp)
  103313:	00 
  103314:	48 8b 84 24 a8 00 00 	mov    0xa8(%rsp),%rax
  10331b:	00 
  10331c:	48 89 44 24 60       	mov    %rax,0x60(%rsp)
  103321:	48 c7 44 24 58 01 00 	movq   $0x1,0x58(%rsp)
  103328:	00 00 
  10332a:	e9 bf fe ff ff       	jmp    1031ee <_ZN9bubble_os3mem6paging11page_mapper6Mapper14translate_page28_$u7b$$u7b$closure$u7d$$u7d$28_$u7b$$u7b$closure$u7d$$u7d$17h9c17d682c2c055c7E+0x1ee>
  10332f:	48 8d 3d da b0 01 00 	lea    0x1b0da(%rip),%rdi        # 11e410 <str.1>
  103336:	48 8d 15 e3 f5 01 00 	lea    0x1f5e3(%rip),%rdx        # 122920 <str.0+0x570>
  10333d:	be 1c 00 00 00       	mov    $0x1c,%esi
  103342:	e8 09 39 01 00       	call   116c50 <_ZN4core9panicking5panic17h13a0ad3e62cace8fE>
  103347:	0f 0b                	ud2
  103349:	0f 1f 80 00 00 00 00 	nopl   0x0(%rax)

0000000000103350 <_ZN9bubble_os3mem6paging11page_mapper6Mapper14translate_page28_$u7b$$u7b$closure$u7d$$u7d$17h604934bcea23b541E>:
  103350:	48 83 ec 18          	sub    $0x18,%rsp
  103354:	48 89 34 24          	mov    %rsi,(%rsp)
  103358:	48 89 7c 24 08       	mov    %rdi,0x8(%rsp)
  10335d:	48 89 74 24 10       	mov    %rsi,0x10(%rsp)
  103362:	48 8b 7c 24 08       	mov    0x8(%rsp),%rdi
  103367:	e8 24 96 01 00       	call   11c990 <_ZN9bubble_os3mem6paging4Page8p3_index17hf5270376f5468210E>
  10336c:	48 8b 3c 24          	mov    (%rsp),%rdi
  103370:	48 89 c6             	mov    %rax,%rsi
  103373:	e8 98 06 00 00       	call   103a10 <_ZN9bubble_os3mem6paging10page_table18PageTable$LT$L$GT$10next_table17hf8beff2b6a09cf8cE>
  103378:	48 83 c4 18          	add    $0x18,%rsp
  10337c:	c3                   	ret
  10337d:	0f 1f 00             	nopl   (%rax)

0000000000103380 <_ZN9bubble_os3mem6paging11page_mapper6Mapper14translate_page28_$u7b$$u7b$closure$u7d$$u7d$17hb71853f08a3eccd4E>:
  103380:	48 83 ec 18          	sub    $0x18,%rsp
  103384:	48 89 34 24          	mov    %rsi,(%rsp)
  103388:	48 89 7c 24 08       	mov    %rdi,0x8(%rsp)
  10338d:	48 89 74 24 10       	mov    %rsi,0x10(%rsp)
  103392:	48 8b 7c 24 08       	mov    0x8(%rsp),%rdi
  103397:	e8 14 96 01 00       	call   11c9b0 <_ZN9bubble_os3mem6paging4Page8p2_index17hdcf9ba0e87ca3141E>
  10339c:	48 8b 3c 24          	mov    (%rsp),%rdi
  1033a0:	48 89 c6             	mov    %rax,%rsi
  1033a3:	e8 38 06 00 00       	call   1039e0 <_ZN9bubble_os3mem6paging10page_table18PageTable$LT$L$GT$10next_table17h9bd0c3f901adcb51E>
  1033a8:	48 83 c4 18          	add    $0x18,%rsp
  1033ac:	c3                   	ret
  1033ad:	0f 1f 00             	nopl   (%rax)

00000000001033b0 <_ZN9bubble_os3mem6paging11page_mapper6Mapper14translate_page28_$u7b$$u7b$closure$u7d$$u7d$17h74e99c0af4d648c9E>:
  1033b0:	48 83 ec 18          	sub    $0x18,%rsp
  1033b4:	48 89 34 24          	mov    %rsi,(%rsp)
  1033b8:	48 89 7c 24 08       	mov    %rdi,0x8(%rsp)
  1033bd:	48 89 74 24 10       	mov    %rsi,0x10(%rsp)
  1033c2:	48 8b 7c 24 08       	mov    0x8(%rsp),%rdi
  1033c7:	e8 04 96 01 00       	call   11c9d0 <_ZN9bubble_os3mem6paging4Page8p1_index17h0a5b9b4dfec03763E>
  1033cc:	48 8b 3c 24          	mov    (%rsp),%rdi
  1033d0:	48 89 c6             	mov    %rax,%rsi
  1033d3:	48 8d 15 76 f5 01 00 	lea    0x1f576(%rip),%rdx        # 122950 <str.0+0x5a0>
  1033da:	e8 61 03 00 00       	call   103740 <_ZN111_$LT$bubble_os..mem..paging..page_table..PageTable$LT$L$GT$$u20$as$u20$core..ops..index..Index$LT$usize$GT$$GT$5index17hcbdd64e490f69c28E>
  1033df:	48 89 c7             	mov    %rax,%rdi
  1033e2:	e8 e9 8a 01 00       	call   11bed0 <_ZN9bubble_os3mem6paging5entry14PageTableEntry9get_frame17h783fba15cc2c3eeaE>
  1033e7:	48 83 c4 18          	add    $0x18,%rsp
  1033eb:	c3                   	ret
  1033ec:	0f 1f 40 00          	nopl   0x0(%rax)

00000000001033f0 <_ZN9bubble_os3mem6paging9temp_page8TempPage3map17hacd53a557baccd4aE>:
  1033f0:	48 81 ec 88 00 00 00 	sub    $0x88,%rsp
  1033f7:	48 89 54 24 10       	mov    %rdx,0x10(%rsp)
  1033fc:	48 89 74 24 08       	mov    %rsi,0x8(%rsp)
  103401:	48 89 f8             	mov    %rdi,%rax
  103404:	48 8b 7c 24 10       	mov    0x10(%rsp),%rdi
  103409:	48 89 44 24 18       	mov    %rax,0x18(%rsp)
  10340e:	48 89 44 24 68       	mov    %rax,0x68(%rsp)
  103413:	48 89 74 24 70       	mov    %rsi,0x70(%rsp)
  103418:	48 89 7c 24 78       	mov    %rdi,0x78(%rsp)
  10341d:	e8 de 95 01 00       	call   11ca00 <_ZN83_$LT$bubble_os..mem..paging..ActivePageTable$u20$as$u20$core..ops..deref..Deref$GT$5deref17hfcad5e8d48161398E>
  103422:	48 8b 7c 24 18       	mov    0x18(%rsp),%rdi
  103427:	48 89 44 24 20       	mov    %rax,0x20(%rsp)
  10342c:	48 83 c7 30          	add    $0x30,%rdi
  103430:	e8 eb 94 01 00       	call   11c920 <_ZN9bubble_os3mem6paging4Page13start_address17hf0184c023ee71be9E>
  103435:	48 8b 7c 24 20       	mov    0x20(%rsp),%rdi
  10343a:	48 89 c6             	mov    %rax,%rsi
  10343d:	e8 ee 87 01 00       	call   11bc30 <_ZN9bubble_os3mem6paging11page_mapper6Mapper17translate_to_phys17h3f70eea11474ea6eE>
  103442:	48 89 54 24 30       	mov    %rdx,0x30(%rsp)
  103447:	48 89 44 24 28       	mov    %rax,0x28(%rsp)
  10344c:	48 8d 7c 24 28       	lea    0x28(%rsp),%rdi
  103451:	e8 ea 82 00 00       	call   10b740 <_ZN4core6option15Option$LT$T$GT$7is_none17h652dccfb3d2f43f0E>
  103456:	88 c1                	mov    %al,%cl
  103458:	80 e1 01             	and    $0x1,%cl
  10345b:	88 8c 24 87 00 00 00 	mov    %cl,0x87(%rsp)
  103462:	a8 01                	test   $0x1,%al
  103464:	75 2c                	jne    103492 <_ZN9bubble_os3mem6paging9temp_page8TempPage3map17hacd53a557baccd4aE+0xa2>
  103466:	48 8d 35 fb f4 01 00 	lea    0x1f4fb(%rip),%rsi        # 122968 <str.0+0x5b8>
  10346d:	48 8d 7c 24 38       	lea    0x38(%rsp),%rdi
  103472:	48 89 3c 24          	mov    %rdi,(%rsp)
  103476:	ba 01 00 00 00       	mov    $0x1,%edx
  10347b:	e8 e0 85 01 00       	call   11ba60 <_ZN4core3fmt9Arguments9new_const17h6199737f6aa61dd0E>
  103480:	48 8b 3c 24          	mov    (%rsp),%rdi
  103484:	48 8d 35 ed f4 01 00 	lea    0x1f4ed(%rip),%rsi        # 122978 <str.0+0x5c8>
  10348b:	e8 90 36 01 00       	call   116b20 <_ZN4core9panicking9panic_fmt17hcb17563f9e9a6761E>
  103490:	0f 0b                	ud2
  103492:	48 8b 7c 24 10       	mov    0x10(%rsp),%rdi
  103497:	e8 74 95 01 00       	call   11ca10 <_ZN86_$LT$bubble_os..mem..paging..ActivePageTable$u20$as$u20$core..ops..deref..DerefMut$GT$9deref_mut17h2a0249dc8e4586e5E>
  10349c:	48 8b 54 24 08       	mov    0x8(%rsp),%rdx
  1034a1:	4c 8b 44 24 18       	mov    0x18(%rsp),%r8
  1034a6:	48 89 c7             	mov    %rax,%rdi
  1034a9:	49 8b 70 30          	mov    0x30(%r8),%rsi
  1034ad:	b9 02 00 00 00       	mov    $0x2,%ecx
  1034b2:	e8 39 f6 ff ff       	call   102af0 <_ZN9bubble_os3mem6paging11page_mapper6Mapper6map_to17h4157b23168821cafE>
  1034b7:	48 8b 7c 24 18       	mov    0x18(%rsp),%rdi
  1034bc:	48 83 c7 30          	add    $0x30,%rdi
  1034c0:	e8 5b 94 01 00       	call   11c920 <_ZN9bubble_os3mem6paging4Page13start_address17hf0184c023ee71be9E>
  1034c5:	48 81 c4 88 00 00 00 	add    $0x88,%rsp
  1034cc:	c3                   	ret
  1034cd:	0f 1f 00             	nopl   (%rax)

00000000001034d0 <_ZN9bubble_os3mem6paging9temp_page8TempPage5unmap17h72a4b9fb34ef225cE>:
  1034d0:	48 83 ec 28          	sub    $0x28,%rsp
  1034d4:	48 89 74 24 08       	mov    %rsi,0x8(%rsp)
  1034d9:	48 89 f8             	mov    %rdi,%rax
  1034dc:	48 8b 7c 24 08       	mov    0x8(%rsp),%rdi
  1034e1:	48 89 44 24 10       	mov    %rax,0x10(%rsp)
  1034e6:	48 89 44 24 18       	mov    %rax,0x18(%rsp)
  1034eb:	48 89 7c 24 20       	mov    %rdi,0x20(%rsp)
  1034f0:	e8 1b 95 01 00       	call   11ca10 <_ZN86_$LT$bubble_os..mem..paging..ActivePageTable$u20$as$u20$core..ops..deref..DerefMut$GT$9deref_mut17h2a0249dc8e4586e5E>
  1034f5:	48 8b 54 24 10       	mov    0x10(%rsp),%rdx
  1034fa:	48 89 c7             	mov    %rax,%rdi
  1034fd:	48 8b 72 30          	mov    0x30(%rdx),%rsi
  103501:	e8 aa f8 ff ff       	call   102db0 <_ZN9bubble_os3mem6paging11page_mapper6Mapper5unmap17h6fdf903c59553949E>
  103506:	48 83 c4 28          	add    $0x28,%rsp
  10350a:	c3                   	ret
  10350b:	0f 1f 44 00 00       	nopl   0x0(%rax,%rax,1)

0000000000103510 <_ZN9bubble_os3mem6paging9temp_page8TempPage15map_table_frame17hc514729b100d3939E>:
  103510:	48 83 ec 28          	sub    $0x28,%rsp
  103514:	48 89 7c 24 08       	mov    %rdi,0x8(%rsp)
  103519:	48 89 74 24 10       	mov    %rsi,0x10(%rsp)
  10351e:	48 89 54 24 18       	mov    %rdx,0x18(%rsp)
  103523:	e8 c8 fe ff ff       	call   1033f0 <_ZN9bubble_os3mem6paging9temp_page8TempPage3map17hacd53a557baccd4aE>
  103528:	48 89 44 24 20       	mov    %rax,0x20(%rsp)
  10352d:	48 83 c4 28          	add    $0x28,%rsp
  103531:	c3                   	ret
  103532:	66 2e 0f 1f 84 00 00 	cs nopw 0x0(%rax,%rax,1)
  103539:	00 00 00 
  10353c:	0f 1f 40 00          	nopl   0x0(%rax)

0000000000103540 <_ZN104_$LT$bubble_os..mem..paging..temp_page..FixedAllocator$u20$as$u20$bubble_os..mem..PageFrameAllocator$GT$6falloc17hc139fc60b15c8c49E>:
  103540:	48 83 ec 28          	sub    $0x28,%rsp
  103544:	48 89 7c 24 08       	mov    %rdi,0x8(%rsp)
  103549:	48 89 7c 24 20       	mov    %rdi,0x20(%rsp)
  10354e:	e8 5d df ff ff       	call   1014b0 <_ZN4core6option15Option$LT$T$GT$7is_some17hac206730ecaec0ddE>
  103553:	a8 01                	test   $0x1,%al
  103555:	75 14                	jne    10356b <_ZN104_$LT$bubble_os..mem..paging..temp_page..FixedAllocator$u20$as$u20$bubble_os..mem..PageFrameAllocator$GT$6falloc17hc139fc60b15c8c49E+0x2b>
  103557:	48 8b 7c 24 08       	mov    0x8(%rsp),%rdi
  10355c:	48 83 c7 10          	add    $0x10,%rdi
  103560:	e8 4b df ff ff       	call   1014b0 <_ZN4core6option15Option$LT$T$GT$7is_some17hac206730ecaec0ddE>
  103565:	a8 01                	test   $0x1,%al
  103567:	75 2c                	jne    103595 <_ZN104_$LT$bubble_os..mem..paging..temp_page..FixedAllocator$u20$as$u20$bubble_os..mem..PageFrameAllocator$GT$6falloc17hc139fc60b15c8c49E+0x55>
  103569:	eb 16                	jmp    103581 <_ZN104_$LT$bubble_os..mem..paging..temp_page..FixedAllocator$u20$as$u20$bubble_os..mem..PageFrameAllocator$GT$6falloc17hc139fc60b15c8c49E+0x41>
  10356b:	48 8b 7c 24 08       	mov    0x8(%rsp),%rdi
  103570:	e8 8b da ff ff       	call   101000 <_ZN4core6option15Option$LT$T$GT$4take17h88f7e9ef9e6da50dE>
  103575:	48 89 54 24 18       	mov    %rdx,0x18(%rsp)
  10357a:	48 89 44 24 10       	mov    %rax,0x10(%rsp)
  10357f:	eb 51                	jmp    1035d2 <_ZN104_$LT$bubble_os..mem..paging..temp_page..FixedAllocator$u20$as$u20$bubble_os..mem..PageFrameAllocator$GT$6falloc17hc139fc60b15c8c49E+0x92>
  103581:	48 8b 7c 24 08       	mov    0x8(%rsp),%rdi
  103586:	48 83 c7 20          	add    $0x20,%rdi
  10358a:	e8 21 df ff ff       	call   1014b0 <_ZN4core6option15Option$LT$T$GT$7is_some17hac206730ecaec0ddE>
  10358f:	a8 01                	test   $0x1,%al
  103591:	75 27                	jne    1035ba <_ZN104_$LT$bubble_os..mem..paging..temp_page..FixedAllocator$u20$as$u20$bubble_os..mem..PageFrameAllocator$GT$6falloc17hc139fc60b15c8c49E+0x7a>
  103593:	eb 1a                	jmp    1035af <_ZN104_$LT$bubble_os..mem..paging..temp_page..FixedAllocator$u20$as$u20$bubble_os..mem..PageFrameAllocator$GT$6falloc17hc139fc60b15c8c49E+0x6f>
  103595:	48 8b 7c 24 08       	mov    0x8(%rsp),%rdi
  10359a:	48 83 c7 10          	add    $0x10,%rdi
  10359e:	e8 5d da ff ff       	call   101000 <_ZN4core6option15Option$LT$T$GT$4take17h88f7e9ef9e6da50dE>
  1035a3:	48 89 54 24 18       	mov    %rdx,0x18(%rsp)
  1035a8:	48 89 44 24 10       	mov    %rax,0x10(%rsp)
  1035ad:	eb 23                	jmp    1035d2 <_ZN104_$LT$bubble_os..mem..paging..temp_page..FixedAllocator$u20$as$u20$bubble_os..mem..PageFrameAllocator$GT$6falloc17hc139fc60b15c8c49E+0x92>
  1035af:	48 c7 44 24 10 00 00 	movq   $0x0,0x10(%rsp)
  1035b6:	00 00 
  1035b8:	eb 18                	jmp    1035d2 <_ZN104_$LT$bubble_os..mem..paging..temp_page..FixedAllocator$u20$as$u20$bubble_os..mem..PageFrameAllocator$GT$6falloc17hc139fc60b15c8c49E+0x92>
  1035ba:	48 8b 7c 24 08       	mov    0x8(%rsp),%rdi
  1035bf:	48 83 c7 20          	add    $0x20,%rdi
  1035c3:	e8 38 da ff ff       	call   101000 <_ZN4core6option15Option$LT$T$GT$4take17h88f7e9ef9e6da50dE>
  1035c8:	48 89 54 24 18       	mov    %rdx,0x18(%rsp)
  1035cd:	48 89 44 24 10       	mov    %rax,0x10(%rsp)
  1035d2:	48 8b 44 24 10       	mov    0x10(%rsp),%rax
  1035d7:	48 8b 54 24 18       	mov    0x18(%rsp),%rdx
  1035dc:	48 83 c4 28          	add    $0x28,%rsp
  1035e0:	c3                   	ret
  1035e1:	66 2e 0f 1f 84 00 00 	cs nopw 0x0(%rax,%rax,1)
  1035e8:	00 00 00 
  1035eb:	0f 1f 44 00 00       	nopl   0x0(%rax,%rax,1)

00000000001035f0 <_ZN4core3ptr7mut_ptr31_$LT$impl$u20$$BP$mut$u20$T$GT$7is_null17h7c63e9f762cc5ac2E>:
  1035f0:	48 83 ec 18          	sub    $0x18,%rsp
  1035f4:	48 89 7c 24 10       	mov    %rdi,0x10(%rsp)
  1035f9:	48 89 7c 24 08       	mov    %rdi,0x8(%rsp)
  1035fe:	48 8b 7c 24 08       	mov    0x8(%rsp),%rdi
  103603:	e8 98 9f 01 00       	call   11d5a0 <_ZN4core3ptr7mut_ptr31_$LT$impl$u20$$BP$mut$u20$T$GT$7is_null12runtime_impl17h14b2121eed42f369E>
  103608:	24 01                	and    $0x1,%al
  10360a:	0f b6 c0             	movzbl %al,%eax
  10360d:	48 83 c4 18          	add    $0x18,%rsp
  103611:	c3                   	ret
  103612:	66 2e 0f 1f 84 00 00 	cs nopw 0x0(%rax,%rax,1)
  103619:	00 00 00 
  10361c:	0f 1f 40 00          	nopl   0x0(%rax)

0000000000103620 <_ZN111_$LT$bubble_os..mem..paging..page_table..PageTable$LT$L$GT$$u20$as$u20$core..ops..index..Index$LT$usize$GT$$GT$5index17h04392d0a4b8a0363E>:
  103620:	48 83 ec 28          	sub    $0x28,%rsp
  103624:	48 89 14 24          	mov    %rdx,(%rsp)
  103628:	48 89 74 24 08       	mov    %rsi,0x8(%rsp)
  10362d:	48 89 7c 24 10       	mov    %rdi,0x10(%rsp)
  103632:	48 89 7c 24 18       	mov    %rdi,0x18(%rsp)
  103637:	48 89 74 24 20       	mov    %rsi,0x20(%rsp)
  10363c:	48 81 fe 00 02 00 00 	cmp    $0x200,%rsi
  103643:	0f 92 c0             	setb   %al
  103646:	a8 01                	test   $0x1,%al
  103648:	75 02                	jne    10364c <_ZN111_$LT$bubble_os..mem..paging..page_table..PageTable$LT$L$GT$$u20$as$u20$core..ops..index..Index$LT$usize$GT$$GT$5index17h04392d0a4b8a0363E+0x2c>
  10364a:	eb 16                	jmp    103662 <_ZN111_$LT$bubble_os..mem..paging..page_table..PageTable$LT$L$GT$$u20$as$u20$core..ops..index..Index$LT$usize$GT$$GT$5index17h04392d0a4b8a0363E+0x42>
  10364c:	48 8b 44 24 10       	mov    0x10(%rsp),%rax
  103651:	48 8b 4c 24 08       	mov    0x8(%rsp),%rcx
  103656:	48 c1 e1 03          	shl    $0x3,%rcx
  10365a:	48 01 c8             	add    %rcx,%rax
  10365d:	48 83 c4 28          	add    $0x28,%rsp
  103661:	c3                   	ret
  103662:	48 8b 14 24          	mov    (%rsp),%rdx
  103666:	48 8b 7c 24 08       	mov    0x8(%rsp),%rdi
  10366b:	be 00 02 00 00       	mov    $0x200,%esi
  103670:	e8 2b 37 01 00       	call   116da0 <_ZN4core9panicking18panic_bounds_check17h8a4f161c923f519cE>
  103675:	0f 0b                	ud2
  103677:	66 0f 1f 84 00 00 00 	nopw   0x0(%rax,%rax,1)
  10367e:	00 00 

0000000000103680 <_ZN111_$LT$bubble_os..mem..paging..page_table..PageTable$LT$L$GT$$u20$as$u20$core..ops..index..Index$LT$usize$GT$$GT$5index17h255f90e0ac8b6f15E>:
  103680:	48 83 ec 28          	sub    $0x28,%rsp
  103684:	48 89 14 24          	mov    %rdx,(%rsp)
  103688:	48 89 74 24 08       	mov    %rsi,0x8(%rsp)
  10368d:	48 89 7c 24 10       	mov    %rdi,0x10(%rsp)
  103692:	48 89 7c 24 18       	mov    %rdi,0x18(%rsp)
  103697:	48 89 74 24 20       	mov    %rsi,0x20(%rsp)
  10369c:	48 81 fe 00 02 00 00 	cmp    $0x200,%rsi
  1036a3:	0f 92 c0             	setb   %al
  1036a6:	a8 01                	test   $0x1,%al
  1036a8:	75 02                	jne    1036ac <_ZN111_$LT$bubble_os..mem..paging..page_table..PageTable$LT$L$GT$$u20$as$u20$core..ops..index..Index$LT$usize$GT$$GT$5index17h255f90e0ac8b6f15E+0x2c>
  1036aa:	eb 16                	jmp    1036c2 <_ZN111_$LT$bubble_os..mem..paging..page_table..PageTable$LT$L$GT$$u20$as$u20$core..ops..index..Index$LT$usize$GT$$GT$5index17h255f90e0ac8b6f15E+0x42>
  1036ac:	48 8b 44 24 10       	mov    0x10(%rsp),%rax
  1036b1:	48 8b 4c 24 08       	mov    0x8(%rsp),%rcx
  1036b6:	48 c1 e1 03          	shl    $0x3,%rcx
  1036ba:	48 01 c8             	add    %rcx,%rax
  1036bd:	48 83 c4 28          	add    $0x28,%rsp
  1036c1:	c3                   	ret
  1036c2:	48 8b 14 24          	mov    (%rsp),%rdx
  1036c6:	48 8b 7c 24 08       	mov    0x8(%rsp),%rdi
  1036cb:	be 00 02 00 00       	mov    $0x200,%esi
  1036d0:	e8 cb 36 01 00       	call   116da0 <_ZN4core9panicking18panic_bounds_check17h8a4f161c923f519cE>
  1036d5:	0f 0b                	ud2
  1036d7:	66 0f 1f 84 00 00 00 	nopw   0x0(%rax,%rax,1)
  1036de:	00 00 

00000000001036e0 <_ZN111_$LT$bubble_os..mem..paging..page_table..PageTable$LT$L$GT$$u20$as$u20$core..ops..index..Index$LT$usize$GT$$GT$5index17hb843fdfbb4b77883E>:
  1036e0:	48 83 ec 28          	sub    $0x28,%rsp
  1036e4:	48 89 14 24          	mov    %rdx,(%rsp)
  1036e8:	48 89 74 24 08       	mov    %rsi,0x8(%rsp)
  1036ed:	48 89 7c 24 10       	mov    %rdi,0x10(%rsp)
  1036f2:	48 89 7c 24 18       	mov    %rdi,0x18(%rsp)
  1036f7:	48 89 74 24 20       	mov    %rsi,0x20(%rsp)
  1036fc:	48 81 fe 00 02 00 00 	cmp    $0x200,%rsi
  103703:	0f 92 c0             	setb   %al
  103706:	a8 01                	test   $0x1,%al
  103708:	75 02                	jne    10370c <_ZN111_$LT$bubble_os..mem..paging..page_table..PageTable$LT$L$GT$$u20$as$u20$core..ops..index..Index$LT$usize$GT$$GT$5index17hb843fdfbb4b77883E+0x2c>
  10370a:	eb 16                	jmp    103722 <_ZN111_$LT$bubble_os..mem..paging..page_table..PageTable$LT$L$GT$$u20$as$u20$core..ops..index..Index$LT$usize$GT$$GT$5index17hb843fdfbb4b77883E+0x42>
  10370c:	48 8b 44 24 10       	mov    0x10(%rsp),%rax
  103711:	48 8b 4c 24 08       	mov    0x8(%rsp),%rcx
  103716:	48 c1 e1 03          	shl    $0x3,%rcx
  10371a:	48 01 c8             	add    %rcx,%rax
  10371d:	48 83 c4 28          	add    $0x28,%rsp
  103721:	c3                   	ret
  103722:	48 8b 14 24          	mov    (%rsp),%rdx
  103726:	48 8b 7c 24 08       	mov    0x8(%rsp),%rdi
  10372b:	be 00 02 00 00       	mov    $0x200,%esi
  103730:	e8 6b 36 01 00       	call   116da0 <_ZN4core9panicking18panic_bounds_check17h8a4f161c923f519cE>
  103735:	0f 0b                	ud2
  103737:	66 0f 1f 84 00 00 00 	nopw   0x0(%rax,%rax,1)
  10373e:	00 00 

0000000000103740 <_ZN111_$LT$bubble_os..mem..paging..page_table..PageTable$LT$L$GT$$u20$as$u20$core..ops..index..Index$LT$usize$GT$$GT$5index17hcbdd64e490f69c28E>:
  103740:	48 83 ec 28          	sub    $0x28,%rsp
  103744:	48 89 14 24          	mov    %rdx,(%rsp)
  103748:	48 89 74 24 08       	mov    %rsi,0x8(%rsp)
  10374d:	48 89 7c 24 10       	mov    %rdi,0x10(%rsp)
  103752:	48 89 7c 24 18       	mov    %rdi,0x18(%rsp)
  103757:	48 89 74 24 20       	mov    %rsi,0x20(%rsp)
  10375c:	48 81 fe 00 02 00 00 	cmp    $0x200,%rsi
  103763:	0f 92 c0             	setb   %al
  103766:	a8 01                	test   $0x1,%al
  103768:	75 02                	jne    10376c <_ZN111_$LT$bubble_os..mem..paging..page_table..PageTable$LT$L$GT$$u20$as$u20$core..ops..index..Index$LT$usize$GT$$GT$5index17hcbdd64e490f69c28E+0x2c>
  10376a:	eb 16                	jmp    103782 <_ZN111_$LT$bubble_os..mem..paging..page_table..PageTable$LT$L$GT$$u20$as$u20$core..ops..index..Index$LT$usize$GT$$GT$5index17hcbdd64e490f69c28E+0x42>
  10376c:	48 8b 44 24 10       	mov    0x10(%rsp),%rax
  103771:	48 8b 4c 24 08       	mov    0x8(%rsp),%rcx
  103776:	48 c1 e1 03          	shl    $0x3,%rcx
  10377a:	48 01 c8             	add    %rcx,%rax
  10377d:	48 83 c4 28          	add    $0x28,%rsp
  103781:	c3                   	ret
  103782:	48 8b 14 24          	mov    (%rsp),%rdx
  103786:	48 8b 7c 24 08       	mov    0x8(%rsp),%rdi
  10378b:	be 00 02 00 00       	mov    $0x200,%esi
  103790:	e8 0b 36 01 00       	call   116da0 <_ZN4core9panicking18panic_bounds_check17h8a4f161c923f519cE>
  103795:	0f 0b                	ud2
  103797:	66 0f 1f 84 00 00 00 	nopw   0x0(%rax,%rax,1)
  10379e:	00 00 

00000000001037a0 <_ZN114_$LT$bubble_os..mem..paging..page_table..PageTable$LT$L$GT$$u20$as$u20$core..ops..index..IndexMut$LT$usize$GT$$GT$9index_mut17h635392c3735674fbE>:
  1037a0:	48 83 ec 28          	sub    $0x28,%rsp
  1037a4:	48 89 14 24          	mov    %rdx,(%rsp)
  1037a8:	48 89 74 24 08       	mov    %rsi,0x8(%rsp)
  1037ad:	48 89 7c 24 10       	mov    %rdi,0x10(%rsp)
  1037b2:	48 89 7c 24 18       	mov    %rdi,0x18(%rsp)
  1037b7:	48 89 74 24 20       	mov    %rsi,0x20(%rsp)
  1037bc:	48 81 fe 00 02 00 00 	cmp    $0x200,%rsi
  1037c3:	0f 92 c0             	setb   %al
  1037c6:	a8 01                	test   $0x1,%al
  1037c8:	75 02                	jne    1037cc <_ZN114_$LT$bubble_os..mem..paging..page_table..PageTable$LT$L$GT$$u20$as$u20$core..ops..index..IndexMut$LT$usize$GT$$GT$9index_mut17h635392c3735674fbE+0x2c>
  1037ca:	eb 16                	jmp    1037e2 <_ZN114_$LT$bubble_os..mem..paging..page_table..PageTable$LT$L$GT$$u20$as$u20$core..ops..index..IndexMut$LT$usize$GT$$GT$9index_mut17h635392c3735674fbE+0x42>
  1037cc:	48 8b 44 24 10       	mov    0x10(%rsp),%rax
  1037d1:	48 8b 4c 24 08       	mov    0x8(%rsp),%rcx
  1037d6:	48 c1 e1 03          	shl    $0x3,%rcx
  1037da:	48 01 c8             	add    %rcx,%rax
  1037dd:	48 83 c4 28          	add    $0x28,%rsp
  1037e1:	c3                   	ret
  1037e2:	48 8b 14 24          	mov    (%rsp),%rdx
  1037e6:	48 8b 7c 24 08       	mov    0x8(%rsp),%rdi
  1037eb:	be 00 02 00 00       	mov    $0x200,%esi
  1037f0:	e8 ab 35 01 00       	call   116da0 <_ZN4core9panicking18panic_bounds_check17h8a4f161c923f519cE>
  1037f5:	0f 0b                	ud2
  1037f7:	66 0f 1f 84 00 00 00 	nopw   0x0(%rax,%rax,1)
  1037fe:	00 00 

0000000000103800 <_ZN114_$LT$bubble_os..mem..paging..page_table..PageTable$LT$L$GT$$u20$as$u20$core..ops..index..IndexMut$LT$usize$GT$$GT$9index_mut17hd51b33f0b932f488E>:
  103800:	48 83 ec 28          	sub    $0x28,%rsp
  103804:	48 89 14 24          	mov    %rdx,(%rsp)
  103808:	48 89 74 24 08       	mov    %rsi,0x8(%rsp)
  10380d:	48 89 7c 24 10       	mov    %rdi,0x10(%rsp)
  103812:	48 89 7c 24 18       	mov    %rdi,0x18(%rsp)
  103817:	48 89 74 24 20       	mov    %rsi,0x20(%rsp)
  10381c:	48 81 fe 00 02 00 00 	cmp    $0x200,%rsi
  103823:	0f 92 c0             	setb   %al
  103826:	a8 01                	test   $0x1,%al
  103828:	75 02                	jne    10382c <_ZN114_$LT$bubble_os..mem..paging..page_table..PageTable$LT$L$GT$$u20$as$u20$core..ops..index..IndexMut$LT$usize$GT$$GT$9index_mut17hd51b33f0b932f488E+0x2c>
  10382a:	eb 16                	jmp    103842 <_ZN114_$LT$bubble_os..mem..paging..page_table..PageTable$LT$L$GT$$u20$as$u20$core..ops..index..IndexMut$LT$usize$GT$$GT$9index_mut17hd51b33f0b932f488E+0x42>
  10382c:	48 8b 44 24 10       	mov    0x10(%rsp),%rax
  103831:	48 8b 4c 24 08       	mov    0x8(%rsp),%rcx
  103836:	48 c1 e1 03          	shl    $0x3,%rcx
  10383a:	48 01 c8             	add    %rcx,%rax
  10383d:	48 83 c4 28          	add    $0x28,%rsp
  103841:	c3                   	ret
  103842:	48 8b 14 24          	mov    (%rsp),%rdx
  103846:	48 8b 7c 24 08       	mov    0x8(%rsp),%rdi
  10384b:	be 00 02 00 00       	mov    $0x200,%esi
  103850:	e8 4b 35 01 00       	call   116da0 <_ZN4core9panicking18panic_bounds_check17h8a4f161c923f519cE>
  103855:	0f 0b                	ud2
  103857:	66 0f 1f 84 00 00 00 	nopw   0x0(%rax,%rax,1)
  10385e:	00 00 

0000000000103860 <_ZN9bubble_os3mem6paging10page_table18PageTable$LT$L$GT$16null_all_entries17h10353f3c273d55c1E>:
  103860:	48 83 ec 28          	sub    $0x28,%rsp
  103864:	48 89 7c 24 18       	mov    %rdi,0x18(%rsp)
  103869:	be 00 02 00 00       	mov    $0x200,%esi
  10386e:	e8 7d 99 01 00       	call   11d1f0 <_ZN4core5slice29_$LT$impl$u20$$u5b$T$u5d$$GT$8iter_mut17hdd92dde2a089b1a7E>
  103873:	48 89 c7             	mov    %rax,%rdi
  103876:	48 89 d6             	mov    %rdx,%rsi
  103879:	e8 f2 92 01 00       	call   11cb70 <_ZN63_$LT$I$u20$as$u20$core..iter..traits..collect..IntoIterator$GT$9into_iter17h5e5fb5c38d7d3a8dE>
  10387e:	48 89 04 24          	mov    %rax,(%rsp)
  103882:	48 89 54 24 08       	mov    %rdx,0x8(%rsp)
  103887:	48 89 e7             	mov    %rsp,%rdi
  10388a:	e8 01 93 01 00       	call   11cb90 <_ZN94_$LT$core..slice..iter..IterMut$LT$T$GT$$u20$as$u20$core..iter..traits..iterator..Iterator$GT$4next17h4190684fc5264e69E>
  10388f:	48 89 44 24 10       	mov    %rax,0x10(%rsp)
  103894:	48 8b 54 24 10       	mov    0x10(%rsp),%rdx
  103899:	b8 01 00 00 00       	mov    $0x1,%eax
  10389e:	31 c9                	xor    %ecx,%ecx
  1038a0:	48 83 fa 00          	cmp    $0x0,%rdx
  1038a4:	48 0f 44 c1          	cmove  %rcx,%rax
  1038a8:	48 83 f8 00          	cmp    $0x0,%rax
  1038ac:	75 05                	jne    1038b3 <_ZN9bubble_os3mem6paging10page_table18PageTable$LT$L$GT$16null_all_entries17h10353f3c273d55c1E+0x53>
  1038ae:	48 83 c4 28          	add    $0x28,%rsp
  1038b2:	c3                   	ret
  1038b3:	48 8b 7c 24 10       	mov    0x10(%rsp),%rdi
  1038b8:	48 89 7c 24 20       	mov    %rdi,0x20(%rsp)
  1038bd:	e8 ee 85 01 00       	call   11beb0 <_ZN9bubble_os3mem6paging5entry14PageTableEntry13set_to_unused17h263fde2de1d09ec0E>
  1038c2:	eb c3                	jmp    103887 <_ZN9bubble_os3mem6paging10page_table18PageTable$LT$L$GT$16null_all_entries17h10353f3c273d55c1E+0x27>
  1038c4:	66 2e 0f 1f 84 00 00 	cs nopw 0x0(%rax,%rax,1)
  1038cb:	00 00 00 
  1038ce:	66 90                	xchg   %ax,%ax

00000000001038d0 <_ZN9bubble_os3mem6paging10page_table18PageTable$LT$L$GT$16null_all_entries17h62e53971ddcfb135E>:
  1038d0:	48 83 ec 28          	sub    $0x28,%rsp
  1038d4:	48 89 7c 24 18       	mov    %rdi,0x18(%rsp)
  1038d9:	be 00 02 00 00       	mov    $0x200,%esi
  1038de:	e8 0d 99 01 00       	call   11d1f0 <_ZN4core5slice29_$LT$impl$u20$$u5b$T$u5d$$GT$8iter_mut17hdd92dde2a089b1a7E>
  1038e3:	48 89 c7             	mov    %rax,%rdi
  1038e6:	48 89 d6             	mov    %rdx,%rsi
  1038e9:	e8 82 92 01 00       	call   11cb70 <_ZN63_$LT$I$u20$as$u20$core..iter..traits..collect..IntoIterator$GT$9into_iter17h5e5fb5c38d7d3a8dE>
  1038ee:	48 89 04 24          	mov    %rax,(%rsp)
  1038f2:	48 89 54 24 08       	mov    %rdx,0x8(%rsp)
  1038f7:	48 89 e7             	mov    %rsp,%rdi
  1038fa:	e8 91 92 01 00       	call   11cb90 <_ZN94_$LT$core..slice..iter..IterMut$LT$T$GT$$u20$as$u20$core..iter..traits..iterator..Iterator$GT$4next17h4190684fc5264e69E>
  1038ff:	48 89 44 24 10       	mov    %rax,0x10(%rsp)
  103904:	48 8b 54 24 10       	mov    0x10(%rsp),%rdx
  103909:	b8 01 00 00 00       	mov    $0x1,%eax
  10390e:	31 c9                	xor    %ecx,%ecx
  103910:	48 83 fa 00          	cmp    $0x0,%rdx
  103914:	48 0f 44 c1          	cmove  %rcx,%rax
  103918:	48 83 f8 00          	cmp    $0x0,%rax
  10391c:	75 05                	jne    103923 <_ZN9bubble_os3mem6paging10page_table18PageTable$LT$L$GT$16null_all_entries17h62e53971ddcfb135E+0x53>
  10391e:	48 83 c4 28          	add    $0x28,%rsp
  103922:	c3                   	ret
  103923:	48 8b 7c 24 10       	mov    0x10(%rsp),%rdi
  103928:	48 89 7c 24 20       	mov    %rdi,0x20(%rsp)
  10392d:	e8 7e 85 01 00       	call   11beb0 <_ZN9bubble_os3mem6paging5entry14PageTableEntry13set_to_unused17h263fde2de1d09ec0E>
  103932:	eb c3                	jmp    1038f7 <_ZN9bubble_os3mem6paging10page_table18PageTable$LT$L$GT$16null_all_entries17h62e53971ddcfb135E+0x27>
  103934:	66 2e 0f 1f 84 00 00 	cs nopw 0x0(%rax,%rax,1)
  10393b:	00 00 00 
  10393e:	66 90                	xchg   %ax,%ax

0000000000103940 <_ZN9bubble_os3mem6paging10page_table18PageTable$LT$L$GT$16null_all_entries17hb510e695eaa72cf1E>:
  103940:	48 83 ec 28          	sub    $0x28,%rsp
  103944:	48 89 7c 24 18       	mov    %rdi,0x18(%rsp)
  103949:	be 00 02 00 00       	mov    $0x200,%esi
  10394e:	e8 9d 98 01 00       	call   11d1f0 <_ZN4core5slice29_$LT$impl$u20$$u5b$T$u5d$$GT$8iter_mut17hdd92dde2a089b1a7E>
  103953:	48 89 c7             	mov    %rax,%rdi
  103956:	48 89 d6             	mov    %rdx,%rsi
  103959:	e8 12 92 01 00       	call   11cb70 <_ZN63_$LT$I$u20$as$u20$core..iter..traits..collect..IntoIterator$GT$9into_iter17h5e5fb5c38d7d3a8dE>
  10395e:	48 89 04 24          	mov    %rax,(%rsp)
  103962:	48 89 54 24 08       	mov    %rdx,0x8(%rsp)
  103967:	48 89 e7             	mov    %rsp,%rdi
  10396a:	e8 21 92 01 00       	call   11cb90 <_ZN94_$LT$core..slice..iter..IterMut$LT$T$GT$$u20$as$u20$core..iter..traits..iterator..Iterator$GT$4next17h4190684fc5264e69E>
  10396f:	48 89 44 24 10       	mov    %rax,0x10(%rsp)
  103974:	48 8b 54 24 10       	mov    0x10(%rsp),%rdx
  103979:	b8 01 00 00 00       	mov    $0x1,%eax
  10397e:	31 c9                	xor    %ecx,%ecx
  103980:	48 83 fa 00          	cmp    $0x0,%rdx
  103984:	48 0f 44 c1          	cmove  %rcx,%rax
  103988:	48 83 f8 00          	cmp    $0x0,%rax
  10398c:	75 05                	jne    103993 <_ZN9bubble_os3mem6paging10page_table18PageTable$LT$L$GT$16null_all_entries17hb510e695eaa72cf1E+0x53>
  10398e:	48 83 c4 28          	add    $0x28,%rsp
  103992:	c3                   	ret
  103993:	48 8b 7c 24 10       	mov    0x10(%rsp),%rdi
  103998:	48 89 7c 24 20       	mov    %rdi,0x20(%rsp)
  10399d:	e8 0e 85 01 00       	call   11beb0 <_ZN9bubble_os3mem6paging5entry14PageTableEntry13set_to_unused17h263fde2de1d09ec0E>
  1039a2:	eb c3                	jmp    103967 <_ZN9bubble_os3mem6paging10page_table18PageTable$LT$L$GT$16null_all_entries17hb510e695eaa72cf1E+0x27>
  1039a4:	66 2e 0f 1f 84 00 00 	cs nopw 0x0(%rax,%rax,1)
  1039ab:	00 00 00 
  1039ae:	66 90                	xchg   %ax,%ax

00000000001039b0 <_ZN9bubble_os3mem6paging10page_table18PageTable$LT$L$GT$10next_table17h7bf479e353f97b0cE>:
  1039b0:	48 83 ec 28          	sub    $0x28,%rsp
  1039b4:	48 89 7c 24 08       	mov    %rdi,0x8(%rsp)
  1039b9:	48 89 74 24 10       	mov    %rsi,0x10(%rsp)
  1039be:	e8 0d 03 00 00       	call   103cd0 <_ZN9bubble_os3mem6paging10page_table18PageTable$LT$L$GT$18next_table_address17hb835aebf204df352E>
  1039c3:	48 89 c7             	mov    %rax,%rdi
  1039c6:	48 89 d6             	mov    %rdx,%rsi
  1039c9:	48 89 7c 24 18       	mov    %rdi,0x18(%rsp)
  1039ce:	48 89 74 24 20       	mov    %rsi,0x20(%rsp)
  1039d3:	e8 58 d4 ff ff       	call   100e30 <_ZN4core6option15Option$LT$T$GT$3map17hadb994080ea2b0b1E>
  1039d8:	48 83 c4 28          	add    $0x28,%rsp
  1039dc:	c3                   	ret
  1039dd:	0f 1f 00             	nopl   (%rax)

00000000001039e0 <_ZN9bubble_os3mem6paging10page_table18PageTable$LT$L$GT$10next_table17h9bd0c3f901adcb51E>:
  1039e0:	48 83 ec 28          	sub    $0x28,%rsp
  1039e4:	48 89 7c 24 08       	mov    %rdi,0x8(%rsp)
  1039e9:	48 89 74 24 10       	mov    %rsi,0x10(%rsp)
  1039ee:	e8 3d 02 00 00       	call   103c30 <_ZN9bubble_os3mem6paging10page_table18PageTable$LT$L$GT$18next_table_address17hb317bdfc2c32cfabE>
  1039f3:	48 89 c7             	mov    %rax,%rdi
  1039f6:	48 89 d6             	mov    %rdx,%rsi
  1039f9:	48 89 7c 24 18       	mov    %rdi,0x18(%rsp)
  1039fe:	48 89 74 24 20       	mov    %rsi,0x20(%rsp)
  103a03:	e8 18 d5 ff ff       	call   100f20 <_ZN4core6option15Option$LT$T$GT$3map17hfdf0a19cbbf142ebE>
  103a08:	48 83 c4 28          	add    $0x28,%rsp
  103a0c:	c3                   	ret
  103a0d:	0f 1f 00             	nopl   (%rax)

0000000000103a10 <_ZN9bubble_os3mem6paging10page_table18PageTable$LT$L$GT$10next_table17hf8beff2b6a09cf8cE>:
  103a10:	48 83 ec 28          	sub    $0x28,%rsp
  103a14:	48 89 7c 24 08       	mov    %rdi,0x8(%rsp)
  103a19:	48 89 74 24 10       	mov    %rsi,0x10(%rsp)
  103a1e:	e8 6d 01 00 00       	call   103b90 <_ZN9bubble_os3mem6paging10page_table18PageTable$LT$L$GT$18next_table_address17h4c5038eea9707f39E>
  103a23:	48 89 c7             	mov    %rax,%rdi
  103a26:	48 89 d6             	mov    %rdx,%rsi
  103a29:	48 89 7c 24 18       	mov    %rdi,0x18(%rsp)
  103a2e:	48 89 74 24 20       	mov    %rsi,0x20(%rsp)
  103a33:	e8 f8 d1 ff ff       	call   100c30 <_ZN4core6option15Option$LT$T$GT$3map17h2e8ad560c2f86b56E>
  103a38:	48 83 c4 28          	add    $0x28,%rsp
  103a3c:	c3                   	ret
  103a3d:	0f 1f 00             	nopl   (%rax)

0000000000103a40 <_ZN9bubble_os3mem6paging10page_table18PageTable$LT$L$GT$10next_table28_$u7b$$u7b$closure$u7d$$u7d$17h49563011e591fc83E>:
  103a40:	48 83 ec 10          	sub    $0x10,%rsp
  103a44:	48 89 f8             	mov    %rdi,%rax
  103a47:	48 89 44 24 08       	mov    %rax,0x8(%rsp)
  103a4c:	48 83 c4 10          	add    $0x10,%rsp
  103a50:	c3                   	ret
  103a51:	66 2e 0f 1f 84 00 00 	cs nopw 0x0(%rax,%rax,1)
  103a58:	00 00 00 
  103a5b:	0f 1f 44 00 00       	nopl   0x0(%rax,%rax,1)

0000000000103a60 <_ZN9bubble_os3mem6paging10page_table18PageTable$LT$L$GT$10next_table28_$u7b$$u7b$closure$u7d$$u7d$17h4e9e39d8eddcf7d3E>:
  103a60:	48 83 ec 10          	sub    $0x10,%rsp
  103a64:	48 89 f8             	mov    %rdi,%rax
  103a67:	48 89 44 24 08       	mov    %rax,0x8(%rsp)
  103a6c:	48 83 c4 10          	add    $0x10,%rsp
  103a70:	c3                   	ret
  103a71:	66 2e 0f 1f 84 00 00 	cs nopw 0x0(%rax,%rax,1)
  103a78:	00 00 00 
  103a7b:	0f 1f 44 00 00       	nopl   0x0(%rax,%rax,1)

0000000000103a80 <_ZN9bubble_os3mem6paging10page_table18PageTable$LT$L$GT$10next_table28_$u7b$$u7b$closure$u7d$$u7d$17hf355fe53a89b0e9fE>:
  103a80:	48 83 ec 10          	sub    $0x10,%rsp
  103a84:	48 89 f8             	mov    %rdi,%rax
  103a87:	48 89 44 24 08       	mov    %rax,0x8(%rsp)
  103a8c:	48 83 c4 10          	add    $0x10,%rsp
  103a90:	c3                   	ret
  103a91:	66 2e 0f 1f 84 00 00 	cs nopw 0x0(%rax,%rax,1)
  103a98:	00 00 00 
  103a9b:	0f 1f 44 00 00       	nopl   0x0(%rax,%rax,1)

0000000000103aa0 <_ZN9bubble_os3mem6paging10page_table18PageTable$LT$L$GT$14next_table_mut17h44cafe97c89d3fb6E>:
  103aa0:	48 83 ec 28          	sub    $0x28,%rsp
  103aa4:	48 89 7c 24 08       	mov    %rdi,0x8(%rsp)
  103aa9:	48 89 74 24 10       	mov    %rsi,0x10(%rsp)
  103aae:	e8 dd 00 00 00       	call   103b90 <_ZN9bubble_os3mem6paging10page_table18PageTable$LT$L$GT$18next_table_address17h4c5038eea9707f39E>
  103ab3:	48 89 c7             	mov    %rax,%rdi
  103ab6:	48 89 d6             	mov    %rdx,%rsi
  103ab9:	48 89 7c 24 18       	mov    %rdi,0x18(%rsp)
  103abe:	48 89 74 24 20       	mov    %rsi,0x20(%rsp)
  103ac3:	e8 88 d2 ff ff       	call   100d50 <_ZN4core6option15Option$LT$T$GT$3map17h54d137cf71384cffE>
  103ac8:	48 83 c4 28          	add    $0x28,%rsp
  103acc:	c3                   	ret
  103acd:	0f 1f 00             	nopl   (%rax)

0000000000103ad0 <_ZN9bubble_os3mem6paging10page_table18PageTable$LT$L$GT$14next_table_mut17hf16ca18485ed5e0dE>:
  103ad0:	48 83 ec 28          	sub    $0x28,%rsp
  103ad4:	48 89 7c 24 08       	mov    %rdi,0x8(%rsp)
  103ad9:	48 89 74 24 10       	mov    %rsi,0x10(%rsp)
  103ade:	e8 ed 01 00 00       	call   103cd0 <_ZN9bubble_os3mem6paging10page_table18PageTable$LT$L$GT$18next_table_address17hb835aebf204df352E>
  103ae3:	48 89 c7             	mov    %rax,%rdi
  103ae6:	48 89 d6             	mov    %rdx,%rsi
  103ae9:	48 89 7c 24 18       	mov    %rdi,0x18(%rsp)
  103aee:	48 89 74 24 20       	mov    %rsi,0x20(%rsp)
  103af3:	e8 98 d4 ff ff       	call   100f90 <_ZN4core6option15Option$LT$T$GT$3map17hfeb46d25697aabffE>
  103af8:	48 83 c4 28          	add    $0x28,%rsp
  103afc:	c3                   	ret
  103afd:	0f 1f 00             	nopl   (%rax)

0000000000103b00 <_ZN9bubble_os3mem6paging10page_table18PageTable$LT$L$GT$14next_table_mut17hf1e4905b27c81e36E>:
  103b00:	48 83 ec 28          	sub    $0x28,%rsp
  103b04:	48 89 7c 24 08       	mov    %rdi,0x8(%rsp)
  103b09:	48 89 74 24 10       	mov    %rsi,0x10(%rsp)
  103b0e:	e8 1d 01 00 00       	call   103c30 <_ZN9bubble_os3mem6paging10page_table18PageTable$LT$L$GT$18next_table_address17hb317bdfc2c32cfabE>
  103b13:	48 89 c7             	mov    %rax,%rdi
  103b16:	48 89 d6             	mov    %rdx,%rsi
  103b19:	48 89 7c 24 18       	mov    %rdi,0x18(%rsp)
  103b1e:	48 89 74 24 20       	mov    %rsi,0x20(%rsp)
  103b23:	e8 98 d2 ff ff       	call   100dc0 <_ZN4core6option15Option$LT$T$GT$3map17h6b987d3403aa008bE>
  103b28:	48 83 c4 28          	add    $0x28,%rsp
  103b2c:	c3                   	ret
  103b2d:	0f 1f 00             	nopl   (%rax)

0000000000103b30 <_ZN9bubble_os3mem6paging10page_table18PageTable$LT$L$GT$14next_table_mut28_$u7b$$u7b$closure$u7d$$u7d$17h03fa4916b1c473b3E>:
  103b30:	48 83 ec 10          	sub    $0x10,%rsp
  103b34:	48 89 f8             	mov    %rdi,%rax
  103b37:	48 89 44 24 08       	mov    %rax,0x8(%rsp)
  103b3c:	48 83 c4 10          	add    $0x10,%rsp
  103b40:	c3                   	ret
  103b41:	66 2e 0f 1f 84 00 00 	cs nopw 0x0(%rax,%rax,1)
  103b48:	00 00 00 
  103b4b:	0f 1f 44 00 00       	nopl   0x0(%rax,%rax,1)

0000000000103b50 <_ZN9bubble_os3mem6paging10page_table18PageTable$LT$L$GT$14next_table_mut28_$u7b$$u7b$closure$u7d$$u7d$17h57d60fa41c418507E>:
  103b50:	48 83 ec 10          	sub    $0x10,%rsp
  103b54:	48 89 f8             	mov    %rdi,%rax
  103b57:	48 89 44 24 08       	mov    %rax,0x8(%rsp)
  103b5c:	48 83 c4 10          	add    $0x10,%rsp
  103b60:	c3                   	ret
  103b61:	66 2e 0f 1f 84 00 00 	cs nopw 0x0(%rax,%rax,1)
  103b68:	00 00 00 
  103b6b:	0f 1f 44 00 00       	nopl   0x0(%rax,%rax,1)

0000000000103b70 <_ZN9bubble_os3mem6paging10page_table18PageTable$LT$L$GT$14next_table_mut28_$u7b$$u7b$closure$u7d$$u7d$17hf6e09527df64376fE>:
  103b70:	48 83 ec 10          	sub    $0x10,%rsp
  103b74:	48 89 f8             	mov    %rdi,%rax
  103b77:	48 89 44 24 08       	mov    %rax,0x8(%rsp)
  103b7c:	48 83 c4 10          	add    $0x10,%rsp
  103b80:	c3                   	ret
  103b81:	66 2e 0f 1f 84 00 00 	cs nopw 0x0(%rax,%rax,1)
  103b88:	00 00 00 
  103b8b:	0f 1f 44 00 00       	nopl   0x0(%rax,%rax,1)

0000000000103b90 <_ZN9bubble_os3mem6paging10page_table18PageTable$LT$L$GT$18next_table_address17h4c5038eea9707f39E>:
  103b90:	48 83 ec 48          	sub    $0x48,%rsp
  103b94:	48 89 34 24          	mov    %rsi,(%rsp)
  103b98:	48 89 7c 24 08       	mov    %rdi,0x8(%rsp)
  103b9d:	48 89 7c 24 28       	mov    %rdi,0x28(%rsp)
  103ba2:	48 89 74 24 30       	mov    %rsi,0x30(%rsp)
  103ba7:	48 8d 15 e2 ed 01 00 	lea    0x1ede2(%rip),%rdx        # 122990 <str.0+0x5e0>
  103bae:	e8 6d fa ff ff       	call   103620 <_ZN111_$LT$bubble_os..mem..paging..page_table..PageTable$LT$L$GT$$u20$as$u20$core..ops..index..Index$LT$usize$GT$$GT$5index17h04392d0a4b8a0363E>
  103bb3:	48 89 c7             	mov    %rax,%rdi
  103bb6:	e8 05 83 01 00       	call   11bec0 <_ZN9bubble_os3mem6paging5entry14PageTableEntry5flags17hb5b6b1241c161e91E>
  103bbb:	48 89 44 24 20       	mov    %rax,0x20(%rsp)
  103bc0:	48 8d 7c 24 20       	lea    0x20(%rsp),%rdi
  103bc5:	be 01 00 00 00       	mov    $0x1,%esi
  103bca:	e8 51 8c 01 00       	call   11c820 <_ZN9bubble_os3mem6paging5entry1_59_$LT$impl$u20$bubble_os..mem..paging..entry..EntryFlags$GT$8contains17hf81178d5313797efE>
  103bcf:	a8 01                	test   $0x1,%al
  103bd1:	75 0b                	jne    103bde <_ZN9bubble_os3mem6paging10page_table18PageTable$LT$L$GT$18next_table_address17h4c5038eea9707f39E+0x4e>
  103bd3:	48 c7 44 24 10 00 00 	movq   $0x0,0x10(%rsp)
  103bda:	00 00 
  103bdc:	eb 3f                	jmp    103c1d <_ZN9bubble_os3mem6paging10page_table18PageTable$LT$L$GT$18next_table_address17h4c5038eea9707f39E+0x8d>
  103bde:	48 8d 7c 24 20       	lea    0x20(%rsp),%rdi
  103be3:	be 80 00 00 00       	mov    $0x80,%esi
  103be8:	e8 33 8c 01 00       	call   11c820 <_ZN9bubble_os3mem6paging5entry1_59_$LT$impl$u20$bubble_os..mem..paging..entry..EntryFlags$GT$8contains17hf81178d5313797efE>
  103bed:	a8 01                	test   $0x1,%al
  103bef:	75 e2                	jne    103bd3 <_ZN9bubble_os3mem6paging10page_table18PageTable$LT$L$GT$18next_table_address17h4c5038eea9707f39E+0x43>
  103bf1:	48 8b 0c 24          	mov    (%rsp),%rcx
  103bf5:	48 8b 44 24 08       	mov    0x8(%rsp),%rax
  103bfa:	48 89 44 24 38       	mov    %rax,0x38(%rsp)
  103bff:	48 c1 e0 09          	shl    $0x9,%rax
  103c03:	48 c1 e1 0c          	shl    $0xc,%rcx
  103c07:	48 09 c8             	or     %rcx,%rax
  103c0a:	48 89 44 24 40       	mov    %rax,0x40(%rsp)
  103c0f:	48 89 44 24 18       	mov    %rax,0x18(%rsp)
  103c14:	48 c7 44 24 10 01 00 	movq   $0x1,0x10(%rsp)
  103c1b:	00 00 
  103c1d:	48 8b 44 24 10       	mov    0x10(%rsp),%rax
  103c22:	48 8b 54 24 18       	mov    0x18(%rsp),%rdx
  103c27:	48 83 c4 48          	add    $0x48,%rsp
  103c2b:	c3                   	ret
  103c2c:	0f 1f 40 00          	nopl   0x0(%rax)

0000000000103c30 <_ZN9bubble_os3mem6paging10page_table18PageTable$LT$L$GT$18next_table_address17hb317bdfc2c32cfabE>:
  103c30:	48 83 ec 48          	sub    $0x48,%rsp
  103c34:	48 89 34 24          	mov    %rsi,(%rsp)
  103c38:	48 89 7c 24 08       	mov    %rdi,0x8(%rsp)
  103c3d:	48 89 7c 24 28       	mov    %rdi,0x28(%rsp)
  103c42:	48 89 74 24 30       	mov    %rsi,0x30(%rsp)
  103c47:	48 8d 15 42 ed 01 00 	lea    0x1ed42(%rip),%rdx        # 122990 <str.0+0x5e0>
  103c4e:	e8 8d fa ff ff       	call   1036e0 <_ZN111_$LT$bubble_os..mem..paging..page_table..PageTable$LT$L$GT$$u20$as$u20$core..ops..index..Index$LT$usize$GT$$GT$5index17hb843fdfbb4b77883E>
  103c53:	48 89 c7             	mov    %rax,%rdi
  103c56:	e8 65 82 01 00       	call   11bec0 <_ZN9bubble_os3mem6paging5entry14PageTableEntry5flags17hb5b6b1241c161e91E>
  103c5b:	48 89 44 24 20       	mov    %rax,0x20(%rsp)
  103c60:	48 8d 7c 24 20       	lea    0x20(%rsp),%rdi
  103c65:	be 01 00 00 00       	mov    $0x1,%esi
  103c6a:	e8 b1 8b 01 00       	call   11c820 <_ZN9bubble_os3mem6paging5entry1_59_$LT$impl$u20$bubble_os..mem..paging..entry..EntryFlags$GT$8contains17hf81178d5313797efE>
  103c6f:	a8 01                	test   $0x1,%al
  103c71:	75 0b                	jne    103c7e <_ZN9bubble_os3mem6paging10page_table18PageTable$LT$L$GT$18next_table_address17hb317bdfc2c32cfabE+0x4e>
  103c73:	48 c7 44 24 10 00 00 	movq   $0x0,0x10(%rsp)
  103c7a:	00 00 
  103c7c:	eb 3f                	jmp    103cbd <_ZN9bubble_os3mem6paging10page_table18PageTable$LT$L$GT$18next_table_address17hb317bdfc2c32cfabE+0x8d>
  103c7e:	48 8d 7c 24 20       	lea    0x20(%rsp),%rdi
  103c83:	be 80 00 00 00       	mov    $0x80,%esi
  103c88:	e8 93 8b 01 00       	call   11c820 <_ZN9bubble_os3mem6paging5entry1_59_$LT$impl$u20$bubble_os..mem..paging..entry..EntryFlags$GT$8contains17hf81178d5313797efE>
  103c8d:	a8 01                	test   $0x1,%al
  103c8f:	75 e2                	jne    103c73 <_ZN9bubble_os3mem6paging10page_table18PageTable$LT$L$GT$18next_table_address17hb317bdfc2c32cfabE+0x43>
  103c91:	48 8b 0c 24          	mov    (%rsp),%rcx
  103c95:	48 8b 44 24 08       	mov    0x8(%rsp),%rax
  103c9a:	48 89 44 24 38       	mov    %rax,0x38(%rsp)
  103c9f:	48 c1 e0 09          	shl    $0x9,%rax
  103ca3:	48 c1 e1 0c          	shl    $0xc,%rcx
  103ca7:	48 09 c8             	or     %rcx,%rax
  103caa:	48 89 44 24 40       	mov    %rax,0x40(%rsp)
  103caf:	48 89 44 24 18       	mov    %rax,0x18(%rsp)
  103cb4:	48 c7 44 24 10 01 00 	movq   $0x1,0x10(%rsp)
  103cbb:	00 00 
  103cbd:	48 8b 44 24 10       	mov    0x10(%rsp),%rax
  103cc2:	48 8b 54 24 18       	mov    0x18(%rsp),%rdx
  103cc7:	48 83 c4 48          	add    $0x48,%rsp
  103ccb:	c3                   	ret
  103ccc:	0f 1f 40 00          	nopl   0x0(%rax)

0000000000103cd0 <_ZN9bubble_os3mem6paging10page_table18PageTable$LT$L$GT$18next_table_address17hb835aebf204df352E>:
  103cd0:	48 83 ec 48          	sub    $0x48,%rsp
  103cd4:	48 89 34 24          	mov    %rsi,(%rsp)
  103cd8:	48 89 7c 24 08       	mov    %rdi,0x8(%rsp)
  103cdd:	48 89 7c 24 28       	mov    %rdi,0x28(%rsp)
  103ce2:	48 89 74 24 30       	mov    %rsi,0x30(%rsp)
  103ce7:	48 8d 15 a2 ec 01 00 	lea    0x1eca2(%rip),%rdx        # 122990 <str.0+0x5e0>
  103cee:	e8 8d f9 ff ff       	call   103680 <_ZN111_$LT$bubble_os..mem..paging..page_table..PageTable$LT$L$GT$$u20$as$u20$core..ops..index..Index$LT$usize$GT$$GT$5index17h255f90e0ac8b6f15E>
  103cf3:	48 89 c7             	mov    %rax,%rdi
  103cf6:	e8 c5 81 01 00       	call   11bec0 <_ZN9bubble_os3mem6paging5entry14PageTableEntry5flags17hb5b6b1241c161e91E>
  103cfb:	48 89 44 24 20       	mov    %rax,0x20(%rsp)
  103d00:	48 8d 7c 24 20       	lea    0x20(%rsp),%rdi
  103d05:	be 01 00 00 00       	mov    $0x1,%esi
  103d0a:	e8 11 8b 01 00       	call   11c820 <_ZN9bubble_os3mem6paging5entry1_59_$LT$impl$u20$bubble_os..mem..paging..entry..EntryFlags$GT$8contains17hf81178d5313797efE>
  103d0f:	a8 01                	test   $0x1,%al
  103d11:	75 0b                	jne    103d1e <_ZN9bubble_os3mem6paging10page_table18PageTable$LT$L$GT$18next_table_address17hb835aebf204df352E+0x4e>
  103d13:	48 c7 44 24 10 00 00 	movq   $0x0,0x10(%rsp)
  103d1a:	00 00 
  103d1c:	eb 3f                	jmp    103d5d <_ZN9bubble_os3mem6paging10page_table18PageTable$LT$L$GT$18next_table_address17hb835aebf204df352E+0x8d>
  103d1e:	48 8d 7c 24 20       	lea    0x20(%rsp),%rdi
  103d23:	be 80 00 00 00       	mov    $0x80,%esi
  103d28:	e8 f3 8a 01 00       	call   11c820 <_ZN9bubble_os3mem6paging5entry1_59_$LT$impl$u20$bubble_os..mem..paging..entry..EntryFlags$GT$8contains17hf81178d5313797efE>
  103d2d:	a8 01                	test   $0x1,%al
  103d2f:	75 e2                	jne    103d13 <_ZN9bubble_os3mem6paging10page_table18PageTable$LT$L$GT$18next_table_address17hb835aebf204df352E+0x43>
  103d31:	48 8b 0c 24          	mov    (%rsp),%rcx
  103d35:	48 8b 44 24 08       	mov    0x8(%rsp),%rax
  103d3a:	48 89 44 24 38       	mov    %rax,0x38(%rsp)
  103d3f:	48 c1 e0 09          	shl    $0x9,%rax
  103d43:	48 c1 e1 0c          	shl    $0xc,%rcx
  103d47:	48 09 c8             	or     %rcx,%rax
  103d4a:	48 89 44 24 40       	mov    %rax,0x40(%rsp)
  103d4f:	48 89 44 24 18       	mov    %rax,0x18(%rsp)
  103d54:	48 c7 44 24 10 01 00 	movq   $0x1,0x10(%rsp)
  103d5b:	00 00 
  103d5d:	48 8b 44 24 10       	mov    0x10(%rsp),%rax
  103d62:	48 8b 54 24 18       	mov    0x18(%rsp),%rdx
  103d67:	48 83 c4 48          	add    $0x48,%rsp
  103d6b:	c3                   	ret
  103d6c:	0f 1f 40 00          	nopl   0x0(%rax)

0000000000103d70 <_ZN9bubble_os3mem6paging10page_table18PageTable$LT$L$GT$17next_table_create17h4c5a39f3f7a174feE>:
  103d70:	48 81 ec 98 00 00 00 	sub    $0x98,%rsp
  103d77:	48 89 54 24 20       	mov    %rdx,0x20(%rsp)
  103d7c:	48 89 74 24 28       	mov    %rsi,0x28(%rsp)
  103d81:	48 89 7c 24 30       	mov    %rdi,0x30(%rsp)
  103d86:	48 89 7c 24 78       	mov    %rdi,0x78(%rsp)
  103d8b:	48 89 b4 24 80 00 00 	mov    %rsi,0x80(%rsp)
  103d92:	00 
  103d93:	48 89 94 24 88 00 00 	mov    %rdx,0x88(%rsp)
  103d9a:	00 
  103d9b:	e8 40 fc ff ff       	call   1039e0 <_ZN9bubble_os3mem6paging10page_table18PageTable$LT$L$GT$10next_table17h9bd0c3f901adcb51E>
  103da0:	48 89 44 24 38       	mov    %rax,0x38(%rsp)
  103da5:	48 8d 7c 24 38       	lea    0x38(%rsp),%rdi
  103daa:	e8 31 d6 ff ff       	call   1013e0 <_ZN4core6option15Option$LT$T$GT$7is_none17hb2f73dbaf061ba16E>
  103daf:	a8 01                	test   $0x1,%al
  103db1:	75 26                	jne    103dd9 <_ZN9bubble_os3mem6paging10page_table18PageTable$LT$L$GT$17next_table_create17h4c5a39f3f7a174feE+0x69>
  103db3:	48 8b 74 24 28       	mov    0x28(%rsp),%rsi
  103db8:	48 8b 7c 24 30       	mov    0x30(%rsp),%rdi
  103dbd:	e8 3e fd ff ff       	call   103b00 <_ZN9bubble_os3mem6paging10page_table18PageTable$LT$L$GT$14next_table_mut17hf1e4905b27c81e36E>
  103dc2:	48 89 c7             	mov    %rax,%rdi
  103dc5:	48 8d 35 3c ec 01 00 	lea    0x1ec3c(%rip),%rsi        # 122a08 <str.0+0x658>
  103dcc:	e8 df d3 ff ff       	call   1011b0 <_ZN4core6option15Option$LT$T$GT$6unwrap17h454c9306039c47b3E>
  103dd1:	48 81 c4 98 00 00 00 	add    $0x98,%rsp
  103dd8:	c3                   	ret
  103dd9:	48 8b 44 24 28       	mov    0x28(%rsp),%rax
  103dde:	48 3d 00 02 00 00    	cmp    $0x200,%rax
  103de4:	0f 92 c0             	setb   %al
  103de7:	a8 01                	test   $0x1,%al
  103de9:	75 02                	jne    103ded <_ZN9bubble_os3mem6paging10page_table18PageTable$LT$L$GT$17next_table_create17h4c5a39f3f7a174feE+0x7d>
  103deb:	eb 30                	jmp    103e1d <_ZN9bubble_os3mem6paging10page_table18PageTable$LT$L$GT$17next_table_create17h4c5a39f3f7a174feE+0xad>
  103ded:	48 8b 7c 24 30       	mov    0x30(%rsp),%rdi
  103df2:	48 8b 44 24 28       	mov    0x28(%rsp),%rax
  103df7:	48 c1 e0 03          	shl    $0x3,%rax
  103dfb:	48 01 c7             	add    %rax,%rdi
  103dfe:	e8 bd 80 01 00       	call   11bec0 <_ZN9bubble_os3mem6paging5entry14PageTableEntry5flags17hb5b6b1241c161e91E>
  103e03:	48 89 44 24 40       	mov    %rax,0x40(%rsp)
  103e08:	48 8d 7c 24 40       	lea    0x40(%rsp),%rdi
  103e0d:	be 80 00 00 00       	mov    $0x80,%esi
  103e12:	e8 09 8a 01 00       	call   11c820 <_ZN9bubble_os3mem6paging5entry1_59_$LT$impl$u20$bubble_os..mem..paging..entry..EntryFlags$GT$8contains17hf81178d5313797efE>
  103e17:	a8 01                	test   $0x1,%al
  103e19:	75 69                	jne    103e84 <_ZN9bubble_os3mem6paging10page_table18PageTable$LT$L$GT$17next_table_create17h4c5a39f3f7a174feE+0x114>
  103e1b:	eb 18                	jmp    103e35 <_ZN9bubble_os3mem6paging10page_table18PageTable$LT$L$GT$17next_table_create17h4c5a39f3f7a174feE+0xc5>
  103e1d:	48 8b 7c 24 28       	mov    0x28(%rsp),%rdi
  103e22:	48 8d 15 7f eb 01 00 	lea    0x1eb7f(%rip),%rdx        # 1229a8 <str.0+0x5f8>
  103e29:	be 00 02 00 00       	mov    $0x200,%esi
  103e2e:	e8 6d 2f 01 00       	call   116da0 <_ZN4core9panicking18panic_bounds_check17h8a4f161c923f519cE>
  103e33:	0f 0b                	ud2
  103e35:	48 8b 7c 24 20       	mov    0x20(%rsp),%rdi
  103e3a:	e8 01 f7 ff ff       	call   103540 <_ZN104_$LT$bubble_os..mem..paging..temp_page..FixedAllocator$u20$as$u20$bubble_os..mem..PageFrameAllocator$GT$6falloc17hc139fc60b15c8c49E>
  103e3f:	48 89 c7             	mov    %rax,%rdi
  103e42:	48 89 d6             	mov    %rdx,%rsi
  103e45:	48 8d 15 af a6 01 00 	lea    0x1a6af(%rip),%rdx        # 11e4fb <str.1+0xeb>
  103e4c:	b9 1f 00 00 00       	mov    $0x1f,%ecx
  103e51:	4c 8d 05 68 eb 01 00 	lea    0x1eb68(%rip),%r8        # 1229c0 <str.0+0x610>
  103e58:	e8 33 d2 ff ff       	call   101090 <_ZN4core6option15Option$LT$T$GT$6expect17he90c8d483c5c796dE>
  103e5d:	48 89 c1             	mov    %rax,%rcx
  103e60:	48 8b 44 24 28       	mov    0x28(%rsp),%rax
  103e65:	48 89 4c 24 18       	mov    %rcx,0x18(%rsp)
  103e6a:	48 89 8c 24 90 00 00 	mov    %rcx,0x90(%rsp)
  103e71:	00 
  103e72:	48 3d 00 02 00 00    	cmp    $0x200,%rax
  103e78:	0f 92 c0             	setb   %al
  103e7b:	a8 01                	test   $0x1,%al
  103e7d:	75 33                	jne    103eb2 <_ZN9bubble_os3mem6paging10page_table18PageTable$LT$L$GT$17next_table_create17h4c5a39f3f7a174feE+0x142>
  103e7f:	e9 90 00 00 00       	jmp    103f14 <_ZN9bubble_os3mem6paging10page_table18PageTable$LT$L$GT$17next_table_create17h4c5a39f3f7a174feE+0x1a4>
  103e84:	48 8d 35 95 eb 01 00 	lea    0x1eb95(%rip),%rsi        # 122a20 <str.0+0x670>
  103e8b:	48 8d 7c 24 48       	lea    0x48(%rsp),%rdi
  103e90:	48 89 7c 24 10       	mov    %rdi,0x10(%rsp)
  103e95:	ba 01 00 00 00       	mov    $0x1,%edx
  103e9a:	e8 c1 7b 01 00       	call   11ba60 <_ZN4core3fmt9Arguments9new_const17h6199737f6aa61dd0E>
  103e9f:	48 8b 7c 24 10       	mov    0x10(%rsp),%rdi
  103ea4:	48 8d 35 85 eb 01 00 	lea    0x1eb85(%rip),%rsi        # 122a30 <str.0+0x680>
  103eab:	e8 70 2c 01 00       	call   116b20 <_ZN4core9panicking9panic_fmt17hcb17563f9e9a6761E>
  103eb0:	0f 0b                	ud2
  103eb2:	48 8b 4c 24 28       	mov    0x28(%rsp),%rcx
  103eb7:	48 8b 44 24 30       	mov    0x30(%rsp),%rax
  103ebc:	48 c1 e1 03          	shl    $0x3,%rcx
  103ec0:	48 01 c8             	add    %rcx,%rax
  103ec3:	48 89 44 24 08       	mov    %rax,0x8(%rsp)
  103ec8:	bf 01 00 00 00       	mov    $0x1,%edi
  103ecd:	be 02 00 00 00       	mov    $0x2,%esi
  103ed2:	e8 89 89 01 00       	call   11c860 <_ZN9bubble_os3mem6paging5entry1_93_$LT$impl$u20$core..ops..bit..BitOr$u20$for$u20$bubble_os..mem..paging..entry..EntryFlags$GT$5bitor17h652ab14438ba6e14E>
  103ed7:	48 8b 7c 24 08       	mov    0x8(%rsp),%rdi
  103edc:	48 8b 74 24 18       	mov    0x18(%rsp),%rsi
  103ee1:	48 89 c2             	mov    %rax,%rdx
  103ee4:	e8 57 80 01 00       	call   11bf40 <_ZN9bubble_os3mem6paging5entry14PageTableEntry3set17hafd52c8fd7765761E>
  103ee9:	48 8b 7c 24 30       	mov    0x30(%rsp),%rdi
  103eee:	48 8b 74 24 28       	mov    0x28(%rsp),%rsi
  103ef3:	e8 08 fc ff ff       	call   103b00 <_ZN9bubble_os3mem6paging10page_table18PageTable$LT$L$GT$14next_table_mut17hf1e4905b27c81e36E>
  103ef8:	48 89 c7             	mov    %rax,%rdi
  103efb:	48 8d 35 ee ea 01 00 	lea    0x1eaee(%rip),%rsi        # 1229f0 <str.0+0x640>
  103f02:	e8 a9 d2 ff ff       	call   1011b0 <_ZN4core6option15Option$LT$T$GT$6unwrap17h454c9306039c47b3E>
  103f07:	48 89 c7             	mov    %rax,%rdi
  103f0a:	e8 c1 f9 ff ff       	call   1038d0 <_ZN9bubble_os3mem6paging10page_table18PageTable$LT$L$GT$16null_all_entries17h62e53971ddcfb135E>
  103f0f:	e9 9f fe ff ff       	jmp    103db3 <_ZN9bubble_os3mem6paging10page_table18PageTable$LT$L$GT$17next_table_create17h4c5a39f3f7a174feE+0x43>
  103f14:	48 8b 7c 24 28       	mov    0x28(%rsp),%rdi
  103f19:	48 8d 15 b8 ea 01 00 	lea    0x1eab8(%rip),%rdx        # 1229d8 <str.0+0x628>
  103f20:	be 00 02 00 00       	mov    $0x200,%esi
  103f25:	e8 76 2e 01 00       	call   116da0 <_ZN4core9panicking18panic_bounds_check17h8a4f161c923f519cE>
  103f2a:	0f 0b                	ud2
  103f2c:	0f 1f 40 00          	nopl   0x0(%rax)

0000000000103f30 <_ZN9bubble_os3mem6paging10page_table18PageTable$LT$L$GT$17next_table_create17h4e03282ede8f3d11E>:
  103f30:	48 81 ec 98 00 00 00 	sub    $0x98,%rsp
  103f37:	48 89 54 24 20       	mov    %rdx,0x20(%rsp)
  103f3c:	48 89 74 24 28       	mov    %rsi,0x28(%rsp)
  103f41:	48 89 7c 24 30       	mov    %rdi,0x30(%rsp)
  103f46:	48 89 7c 24 78       	mov    %rdi,0x78(%rsp)
  103f4b:	48 89 b4 24 80 00 00 	mov    %rsi,0x80(%rsp)
  103f52:	00 
  103f53:	48 89 94 24 88 00 00 	mov    %rdx,0x88(%rsp)
  103f5a:	00 
  103f5b:	e8 50 fa ff ff       	call   1039b0 <_ZN9bubble_os3mem6paging10page_table18PageTable$LT$L$GT$10next_table17h7bf479e353f97b0cE>
  103f60:	48 89 44 24 38       	mov    %rax,0x38(%rsp)
  103f65:	48 8d 7c 24 38       	lea    0x38(%rsp),%rdi
  103f6a:	e8 51 d4 ff ff       	call   1013c0 <_ZN4core6option15Option$LT$T$GT$7is_none17h81aec546004165c5E>
  103f6f:	a8 01                	test   $0x1,%al
  103f71:	75 26                	jne    103f99 <_ZN9bubble_os3mem6paging10page_table18PageTable$LT$L$GT$17next_table_create17h4e03282ede8f3d11E+0x69>
  103f73:	48 8b 74 24 28       	mov    0x28(%rsp),%rsi
  103f78:	48 8b 7c 24 30       	mov    0x30(%rsp),%rdi
  103f7d:	e8 4e fb ff ff       	call   103ad0 <_ZN9bubble_os3mem6paging10page_table18PageTable$LT$L$GT$14next_table_mut17hf16ca18485ed5e0dE>
  103f82:	48 89 c7             	mov    %rax,%rdi
  103f85:	48 8d 35 7c ea 01 00 	lea    0x1ea7c(%rip),%rsi        # 122a08 <str.0+0x658>
  103f8c:	e8 df d3 ff ff       	call   101370 <_ZN4core6option15Option$LT$T$GT$6unwrap17hfbb74fe1a15187a4E>
  103f91:	48 81 c4 98 00 00 00 	add    $0x98,%rsp
  103f98:	c3                   	ret
  103f99:	48 8b 44 24 28       	mov    0x28(%rsp),%rax
  103f9e:	48 3d 00 02 00 00    	cmp    $0x200,%rax
  103fa4:	0f 92 c0             	setb   %al
  103fa7:	a8 01                	test   $0x1,%al
  103fa9:	75 02                	jne    103fad <_ZN9bubble_os3mem6paging10page_table18PageTable$LT$L$GT$17next_table_create17h4e03282ede8f3d11E+0x7d>
  103fab:	eb 30                	jmp    103fdd <_ZN9bubble_os3mem6paging10page_table18PageTable$LT$L$GT$17next_table_create17h4e03282ede8f3d11E+0xad>
  103fad:	48 8b 7c 24 30       	mov    0x30(%rsp),%rdi
  103fb2:	48 8b 44 24 28       	mov    0x28(%rsp),%rax
  103fb7:	48 c1 e0 03          	shl    $0x3,%rax
  103fbb:	48 01 c7             	add    %rax,%rdi
  103fbe:	e8 fd 7e 01 00       	call   11bec0 <_ZN9bubble_os3mem6paging5entry14PageTableEntry5flags17hb5b6b1241c161e91E>
  103fc3:	48 89 44 24 40       	mov    %rax,0x40(%rsp)
  103fc8:	48 8d 7c 24 40       	lea    0x40(%rsp),%rdi
  103fcd:	be 80 00 00 00       	mov    $0x80,%esi
  103fd2:	e8 49 88 01 00       	call   11c820 <_ZN9bubble_os3mem6paging5entry1_59_$LT$impl$u20$bubble_os..mem..paging..entry..EntryFlags$GT$8contains17hf81178d5313797efE>
  103fd7:	a8 01                	test   $0x1,%al
  103fd9:	75 69                	jne    104044 <_ZN9bubble_os3mem6paging10page_table18PageTable$LT$L$GT$17next_table_create17h4e03282ede8f3d11E+0x114>
  103fdb:	eb 18                	jmp    103ff5 <_ZN9bubble_os3mem6paging10page_table18PageTable$LT$L$GT$17next_table_create17h4e03282ede8f3d11E+0xc5>
  103fdd:	48 8b 7c 24 28       	mov    0x28(%rsp),%rdi
  103fe2:	48 8d 15 bf e9 01 00 	lea    0x1e9bf(%rip),%rdx        # 1229a8 <str.0+0x5f8>
  103fe9:	be 00 02 00 00       	mov    $0x200,%esi
  103fee:	e8 ad 2d 01 00       	call   116da0 <_ZN4core9panicking18panic_bounds_check17h8a4f161c923f519cE>
  103ff3:	0f 0b                	ud2
  103ff5:	48 8b 7c 24 20       	mov    0x20(%rsp),%rdi
  103ffa:	e8 41 f5 ff ff       	call   103540 <_ZN104_$LT$bubble_os..mem..paging..temp_page..FixedAllocator$u20$as$u20$bubble_os..mem..PageFrameAllocator$GT$6falloc17hc139fc60b15c8c49E>
  103fff:	48 89 c7             	mov    %rax,%rdi
  104002:	48 89 d6             	mov    %rdx,%rsi
  104005:	48 8d 15 ef a4 01 00 	lea    0x1a4ef(%rip),%rdx        # 11e4fb <str.1+0xeb>
  10400c:	b9 1f 00 00 00       	mov    $0x1f,%ecx
  104011:	4c 8d 05 a8 e9 01 00 	lea    0x1e9a8(%rip),%r8        # 1229c0 <str.0+0x610>
  104018:	e8 73 d0 ff ff       	call   101090 <_ZN4core6option15Option$LT$T$GT$6expect17he90c8d483c5c796dE>
  10401d:	48 89 c1             	mov    %rax,%rcx
  104020:	48 8b 44 24 28       	mov    0x28(%rsp),%rax
  104025:	48 89 4c 24 18       	mov    %rcx,0x18(%rsp)
  10402a:	48 89 8c 24 90 00 00 	mov    %rcx,0x90(%rsp)
  104031:	00 
  104032:	48 3d 00 02 00 00    	cmp    $0x200,%rax
  104038:	0f 92 c0             	setb   %al
  10403b:	a8 01                	test   $0x1,%al
  10403d:	75 33                	jne    104072 <_ZN9bubble_os3mem6paging10page_table18PageTable$LT$L$GT$17next_table_create17h4e03282ede8f3d11E+0x142>
  10403f:	e9 90 00 00 00       	jmp    1040d4 <_ZN9bubble_os3mem6paging10page_table18PageTable$LT$L$GT$17next_table_create17h4e03282ede8f3d11E+0x1a4>
  104044:	48 8d 35 d5 e9 01 00 	lea    0x1e9d5(%rip),%rsi        # 122a20 <str.0+0x670>
  10404b:	48 8d 7c 24 48       	lea    0x48(%rsp),%rdi
  104050:	48 89 7c 24 10       	mov    %rdi,0x10(%rsp)
  104055:	ba 01 00 00 00       	mov    $0x1,%edx
  10405a:	e8 01 7a 01 00       	call   11ba60 <_ZN4core3fmt9Arguments9new_const17h6199737f6aa61dd0E>
  10405f:	48 8b 7c 24 10       	mov    0x10(%rsp),%rdi
  104064:	48 8d 35 c5 e9 01 00 	lea    0x1e9c5(%rip),%rsi        # 122a30 <str.0+0x680>
  10406b:	e8 b0 2a 01 00       	call   116b20 <_ZN4core9panicking9panic_fmt17hcb17563f9e9a6761E>
  104070:	0f 0b                	ud2
  104072:	48 8b 4c 24 28       	mov    0x28(%rsp),%rcx
  104077:	48 8b 44 24 30       	mov    0x30(%rsp),%rax
  10407c:	48 c1 e1 03          	shl    $0x3,%rcx
  104080:	48 01 c8             	add    %rcx,%rax
  104083:	48 89 44 24 08       	mov    %rax,0x8(%rsp)
  104088:	bf 01 00 00 00       	mov    $0x1,%edi
  10408d:	be 02 00 00 00       	mov    $0x2,%esi
  104092:	e8 c9 87 01 00       	call   11c860 <_ZN9bubble_os3mem6paging5entry1_93_$LT$impl$u20$core..ops..bit..BitOr$u20$for$u20$bubble_os..mem..paging..entry..EntryFlags$GT$5bitor17h652ab14438ba6e14E>
  104097:	48 8b 7c 24 08       	mov    0x8(%rsp),%rdi
  10409c:	48 8b 74 24 18       	mov    0x18(%rsp),%rsi
  1040a1:	48 89 c2             	mov    %rax,%rdx
  1040a4:	e8 97 7e 01 00       	call   11bf40 <_ZN9bubble_os3mem6paging5entry14PageTableEntry3set17hafd52c8fd7765761E>
  1040a9:	48 8b 7c 24 30       	mov    0x30(%rsp),%rdi
